
torture_core:     file format elf32-bigmips


Disassembly of section .text:

00400018 <_ftext>:
  400018:	3c010040 	lui	at,0x40
  40001c:	ac3f5000 	sw	ra,20480(at)
  400020:	24020004 	li	v0,4
  400024:	3c040040 	lui	a0,0x40
  400028:	24845004 	addiu	a0,a0,20484
  40002c:	0000000c 	syscall
  400030:	24020004 	li	v0,4
  400034:	3c040040 	lui	a0,0x40
  400038:	24845040 	addiu	a0,a0,20544
  40003c:	0000000c 	syscall
  400040:	20000001 	addi	zero,zero,1
  400044:	1400134c 	bnez	zero,404d78 <fail>
  400048:	00000000 	nop
  40004c:	24020004 	li	v0,4
  400050:	3c040040 	lui	a0,0x40
  400054:	24845057 	addiu	a0,a0,20567
  400058:	0000000c 	syscall
  40005c:	3c040040 	lui	a0,0x40
  400060:	24845068 	addiu	a0,a0,20584
  400064:	24050006 	li	a1,6
  400068:	0c100023 	jal	40008c <ck_strings>
  40006c:	00000000 	nop
  400070:	3c040040 	lui	a0,0x40
  400074:	2484507d 	addiu	a0,a0,20605
  400078:	24050006 	li	a1,6
  40007c:	0c100023 	jal	40008c <ck_strings>
  400080:	00000000 	nop
  400084:	0810003e 	j	4000f8 <over_strlen>
  400088:	00000000 	nop

0040008c <ck_strings>:
  40008c:	00808021 	move	s0,a0
  400090:	03e08821 	move	s1,ra
  400094:	24120000 	li	s2,0

00400098 <l_asciiz1>:
  400098:	02002021 	move	a0,s0
  40009c:	0c100034 	jal	4000d0 <strlen>
  4000a0:	00000000 	nop
  4000a4:	14521334 	bne	v0,s2,404d78 <fail>
  4000a8:	00000000 	nop
  4000ac:	02028020 	add	s0,s0,v0
  4000b0:	22100001 	addi	s0,s0,1
  4000b4:	22520001 	addi	s2,s2,1
  4000b8:	0245082a 	slt	at,s2,a1
  4000bc:	1420fff6 	bnez	at,400098 <l_asciiz1>
  4000c0:	00000000 	nop
  4000c4:	0220f821 	move	ra,s1
  4000c8:	03e0f809 	jalr	ra
  4000cc:	00000000 	nop

004000d0 <strlen>:
  4000d0:	24020000 	li	v0,0
  4000d4:	00804021 	move	t0,a0

004000d8 <l_strlen1>:
  4000d8:	81090000 	lb	t1,0(t0)
  4000dc:	21080001 	addi	t0,t0,1
  4000e0:	20420001 	addi	v0,v0,1
  4000e4:	1520fffc 	bnez	t1,4000d8 <l_strlen1>
  4000e8:	00000000 	nop
  4000ec:	2042ffff 	addi	v0,v0,-1
  4000f0:	03e00008 	jr	ra
  4000f4:	00000000 	nop

004000f8 <over_strlen>:
  4000f8:	24020004 	li	v0,4
  4000fc:	3c040040 	lui	a0,0x40
  400100:	24845092 	addiu	a0,a0,20626
  400104:	0000000c 	syscall
  400108:	24020001 	li	v0,1
  40010c:	2403ffff 	li	v1,-1
  400110:	00002020 	add	a0,zero,zero
  400114:	14801318 	bnez	a0,404d78 <fail>
  400118:	00000000 	nop
  40011c:	00022020 	add	a0,zero,v0
  400120:	24010001 	li	at,1
  400124:	14811314 	bne	a0,at,404d78 <fail>
  400128:	00000000 	nop
  40012c:	00832020 	add	a0,a0,v1
  400130:	14801311 	bnez	a0,404d78 <fail>
  400134:	00000000 	nop
  400138:	24020004 	li	v0,4
  40013c:	3c040040 	lui	a0,0x40
  400140:	2484509f 	addiu	a0,a0,20639
  400144:	0000000c 	syscall
  400148:	20040000 	addi	a0,zero,0
  40014c:	1480130a 	bnez	a0,404d78 <fail>
  400150:	00000000 	nop
  400154:	20040001 	addi	a0,zero,1
  400158:	24010001 	li	at,1
  40015c:	14811306 	bne	a0,at,404d78 <fail>
  400160:	00000000 	nop
  400164:	2084ffff 	addi	a0,a0,-1
  400168:	14801303 	bnez	a0,404d78 <fail>
  40016c:	00000000 	nop
  400170:	24020004 	li	v0,4
  400174:	3c040040 	lui	a0,0x40
  400178:	248450ad 	addiu	a0,a0,20653
  40017c:	0000000c 	syscall
  400180:	24040000 	li	a0,0
  400184:	148012fc 	bnez	a0,404d78 <fail>
  400188:	00000000 	nop
  40018c:	24040001 	li	a0,1
  400190:	24010001 	li	at,1
  400194:	148112f8 	bne	a0,at,404d78 <fail>
  400198:	00000000 	nop
  40019c:	2484ffff 	addiu	a0,a0,-1
  4001a0:	148012f5 	bnez	a0,404d78 <fail>
  4001a4:	00000000 	nop
  4001a8:	3c027fff 	lui	v0,0x7fff
  4001ac:	3442ffff 	ori	v0,v0,0xffff
  4001b0:	24420002 	addiu	v0,v0,2
  4001b4:	3c018000 	lui	at,0x8000
  4001b8:	34210001 	ori	at,at,0x1
  4001bc:	144112ee 	bne	v0,at,404d78 <fail>
  4001c0:	00000000 	nop
  4001c4:	24020004 	li	v0,4
  4001c8:	3c040040 	lui	a0,0x40
  4001cc:	248450bc 	addiu	a0,a0,20668
  4001d0:	0000000c 	syscall
  4001d4:	24020001 	li	v0,1
  4001d8:	2403ffff 	li	v1,-1
  4001dc:	00002021 	move	a0,zero
  4001e0:	148012e5 	bnez	a0,404d78 <fail>
  4001e4:	00000000 	nop
  4001e8:	00022021 	addu	a0,zero,v0
  4001ec:	24010001 	li	at,1
  4001f0:	148112e1 	bne	a0,at,404d78 <fail>
  4001f4:	00000000 	nop
  4001f8:	00832021 	addu	a0,a0,v1
  4001fc:	148012de 	bnez	a0,404d78 <fail>
  400200:	00000000 	nop
  400204:	3c027fff 	lui	v0,0x7fff
  400208:	3442ffff 	ori	v0,v0,0xffff
  40020c:	00421021 	addu	v0,v0,v0
  400210:	2401fffe 	li	at,-2
  400214:	144112d8 	bne	v0,at,404d78 <fail>
  400218:	00000000 	nop
  40021c:	24020004 	li	v0,4
  400220:	3c040040 	lui	a0,0x40
  400224:	248450ca 	addiu	a0,a0,20682
  400228:	0000000c 	syscall
  40022c:	24020001 	li	v0,1
  400230:	2403ffff 	li	v1,-1
  400234:	00002024 	and	a0,zero,zero
  400238:	148012cf 	bnez	a0,404d78 <fail>
  40023c:	00000000 	nop
  400240:	00422024 	and	a0,v0,v0
  400244:	108012cc 	beqz	a0,404d78 <fail>
  400248:	00000000 	nop
  40024c:	00432024 	and	a0,v0,v1
  400250:	24010001 	li	at,1
  400254:	148112c8 	bne	a0,at,404d78 <fail>
  400258:	00000000 	nop
  40025c:	24020004 	li	v0,4
  400260:	3c040040 	lui	a0,0x40
  400264:	248450d7 	addiu	a0,a0,20695
  400268:	0000000c 	syscall
  40026c:	24020001 	li	v0,1
  400270:	2403ffff 	li	v1,-1
  400274:	30040000 	andi	a0,zero,0x0
  400278:	148012bf 	bnez	a0,404d78 <fail>
  40027c:	00000000 	nop
  400280:	30440001 	andi	a0,v0,0x1
  400284:	108012bc 	beqz	a0,404d78 <fail>
  400288:	00000000 	nop
  40028c:	2401ffff 	li	at,-1
  400290:	00412024 	and	a0,v0,at
  400294:	24010001 	li	at,1
  400298:	148112b7 	bne	a0,at,404d78 <fail>
  40029c:	00000000 	nop
  4002a0:	2401ffff 	li	at,-1
  4002a4:	00612024 	and	a0,v1,at
  4002a8:	148312b3 	bne	a0,v1,404d78 <fail>
  4002ac:	00000000 	nop
  4002b0:	24020004 	li	v0,4
  4002b4:	3c040040 	lui	a0,0x40
  4002b8:	248450e5 	addiu	a0,a0,20709
  4002bc:	0000000c 	syscall
  4002c0:	2402ffff 	li	v0,-1
  4002c4:	24030001 	li	v1,1
  4002c8:	10000003 	b	4002d8 <l1>
  4002cc:	00000000 	nop
  4002d0:	0810135e 	j	404d78 <fail>
  4002d4:	00000000 	nop

004002d8 <l1>:
  4002d8:	10420003 	beq	v0,v0,4002e8 <l2>
  4002dc:	00000000 	nop
  4002e0:	0810135e 	j	404d78 <fail>
  4002e4:	00000000 	nop

004002e8 <l2>:
  4002e8:	106212a3 	beq	v1,v0,404d78 <fail>
  4002ec:	00000000 	nop
  4002f0:	104212a7 	beq	v0,v0,404d90 <far_away>
  4002f4:	00000000 	nop
  4002f8:	0810135e 	j	404d78 <fail>
  4002fc:	00000000 	nop

00400300 <come_back>:
  400300:	24020003 	li	v0,3

00400304 <l2_1>:
  400304:	2042ffff 	addi	v0,v0,-1
  400308:	1440fffe 	bnez	v0,400304 <l2_1>
  40030c:	00000000 	nop
  400310:	24020004 	li	v0,4
  400314:	3c040040 	lui	a0,0x40
  400318:	248450f2 	addiu	a0,a0,20722
  40031c:	0000000c 	syscall
  400320:	2402ffff 	li	v0,-1
  400324:	24030001 	li	v1,1
  400328:	04010003 	b	400338 <l3>
  40032c:	00000000 	nop
  400330:	0810135e 	j	404d78 <fail>
  400334:	00000000 	nop

00400338 <l3>:
  400338:	04610003 	bgez	v1,400348 <l4>
  40033c:	00000000 	nop
  400340:	0810135e 	j	404d78 <fail>
  400344:	00000000 	nop

00400348 <l4>:
  400348:	0441128b 	bgez	v0,404d78 <fail>
  40034c:	00000000 	nop
  400350:	24020004 	li	v0,4
  400354:	3c040040 	lui	a0,0x40
  400358:	24845100 	addiu	a0,a0,20736
  40035c:	0000000c 	syscall
  400360:	2402ffff 	li	v0,-1
  400364:	24030001 	li	v1,1
  400368:	04110005 	bal	400380 <l5>
  40036c:	00000000 	nop
  400370:	0810135e 	j	404d78 <fail>
  400374:	00000000 	nop
  400378:	0451127f 	bgezal	v0,404d78 <fail>
  40037c:	00000000 	nop

00400380 <l5>:
  400380:	04710003 	bgezal	v1,400390 <l6>
  400384:	00000000 	nop

00400388 <l55>:
  400388:	0810135e 	j	404d78 <fail>
  40038c:	00000000 	nop

00400390 <l6>:
  400390:	3c040040 	lui	a0,0x40
  400394:	24840388 	addiu	a0,a0,904
  400398:	17e41277 	bne	ra,a0,404d78 <fail>
  40039c:	00000000 	nop
  4003a0:	24020004 	li	v0,4
  4003a4:	3c040040 	lui	a0,0x40
  4003a8:	24845110 	addiu	a0,a0,20752
  4003ac:	0000000c 	syscall
  4003b0:	2402ffff 	li	v0,-1
  4003b4:	24030001 	li	v1,1
  4003b8:	1c00126f 	bgtz	zero,404d78 <fail>
  4003bc:	00000000 	nop

004003c0 <l7>:
  4003c0:	1c600003 	bgtz	v1,4003d0 <l8>
  4003c4:	00000000 	nop
  4003c8:	0810135e 	j	404d78 <fail>
  4003cc:	00000000 	nop

004003d0 <l8>:
  4003d0:	1c401269 	bgtz	v0,404d78 <fail>
  4003d4:	00000000 	nop
  4003d8:	24020004 	li	v0,4
  4003dc:	3c040040 	lui	a0,0x40
  4003e0:	2484511e 	addiu	a0,a0,20766
  4003e4:	0000000c 	syscall
  4003e8:	2402ffff 	li	v0,-1
  4003ec:	24030001 	li	v1,1
  4003f0:	18000003 	blez	zero,400400 <l9>
  4003f4:	00000000 	nop
  4003f8:	0810135e 	j	404d78 <fail>
  4003fc:	00000000 	nop

00400400 <l9>:
  400400:	18400003 	blez	v0,400410 <l10>
  400404:	00000000 	nop
  400408:	0810135e 	j	404d78 <fail>
  40040c:	00000000 	nop

00400410 <l10>:
  400410:	18601259 	blez	v1,404d78 <fail>
  400414:	00000000 	nop
  400418:	24020004 	li	v0,4
  40041c:	3c040040 	lui	a0,0x40
  400420:	2484512c 	addiu	a0,a0,20780
  400424:	0000000c 	syscall
  400428:	2402ffff 	li	v0,-1
  40042c:	24030001 	li	v1,1
  400430:	04001251 	bltz	zero,404d78 <fail>
  400434:	00000000 	nop

00400438 <l11>:
  400438:	04400003 	bltz	v0,400448 <l12>
  40043c:	00000000 	nop
  400440:	0810135e 	j	404d78 <fail>
  400444:	00000000 	nop

00400448 <l12>:
  400448:	0460124b 	bltz	v1,404d78 <fail>
  40044c:	00000000 	nop
  400450:	24020004 	li	v0,4
  400454:	3c040040 	lui	a0,0x40
  400458:	2484513a 	addiu	a0,a0,20794
  40045c:	0000000c 	syscall
  400460:	2402ffff 	li	v0,-1
  400464:	24030001 	li	v1,1
  400468:	04101243 	bltzal	zero,404d78 <fail>
  40046c:	00000000 	nop
  400470:	04701241 	bltzal	v1,404d78 <fail>
  400474:	00000000 	nop

00400478 <l13>:
  400478:	04500003 	bltzal	v0,400488 <l15>
  40047c:	00000000 	nop

00400480 <l14>:
  400480:	0810135e 	j	404d78 <fail>
  400484:	00000000 	nop

00400488 <l15>:
  400488:	3c040040 	lui	a0,0x40
  40048c:	24840480 	addiu	a0,a0,1152
  400490:	17e41239 	bne	ra,a0,404d78 <fail>
  400494:	00000000 	nop
  400498:	24020004 	li	v0,4
  40049c:	3c040040 	lui	a0,0x40
  4004a0:	2484514a 	addiu	a0,a0,20810
  4004a4:	0000000c 	syscall
  4004a8:	2402ffff 	li	v0,-1
  4004ac:	24030001 	li	v1,1
  4004b0:	14001231 	bnez	zero,404d78 <fail>
  4004b4:	00000000 	nop
  4004b8:	1442122f 	bne	v0,v0,404d78 <fail>
  4004bc:	00000000 	nop
  4004c0:	14620001 	bne	v1,v0,4004c8 <l16>
  4004c4:	00000000 	nop

004004c8 <l16>:
  4004c8:	24020004 	li	v0,4
  4004cc:	3c040040 	lui	a0,0x40
  4004d0:	24845157 	addiu	a0,a0,20823
  4004d4:	0000000c 	syscall
  4004d8:	0003000d 	break	0x3
  4004dc:	24020004 	li	v0,4
  4004e0:	3c040040 	lui	a0,0x40
  4004e4:	24845184 	addiu	a0,a0,20868
  4004e8:	0000000c 	syscall
  4004ec:	24027f7f 	li	v0,32639
  4004f0:	40c21800 	ctc0	v0,c0_entrylo1
  4004f4:	40441800 	cfc0	a0,c0_entrylo1
  4004f8:	1444121f 	bne	v0,a0,404d78 <fail>
  4004fc:	00000000 	nop
  400500:	24027f7f 	li	v0,32639
  400504:	44c21800 	ctc1	v0,$3
  400508:	44441800 	cfc1	a0,$3
  40050c:	1444121a 	bne	v0,a0,404d78 <fail>
  400510:	00000000 	nop
  400514:	24020004 	li	v0,4
  400518:	3c040040 	lui	a0,0x40
  40051c:	248451b2 	addiu	a0,a0,20914
  400520:	0000000c 	syscall
  400524:	24020000 	li	v0,0
  400528:	70431821 	clo	v1,v0
  40052c:	14601212 	bnez	v1,404d78 <fail>
  400530:	00000000 	nop
  400534:	2402ffff 	li	v0,-1
  400538:	70431821 	clo	v1,v0
  40053c:	24010020 	li	at,32
  400540:	1461120d 	bne	v1,at,404d78 <fail>
  400544:	00000000 	nop
  400548:	3c02f000 	lui	v0,0xf000
  40054c:	70431821 	clo	v1,v0
  400550:	24010004 	li	at,4
  400554:	14611208 	bne	v1,at,404d78 <fail>
  400558:	00000000 	nop
  40055c:	24020004 	li	v0,4
  400560:	3c040040 	lui	a0,0x40
  400564:	248451bf 	addiu	a0,a0,20927
  400568:	0000000c 	syscall
  40056c:	24020000 	li	v0,0
  400570:	70431820 	clz	v1,v0
  400574:	24010020 	li	at,32
  400578:	146111ff 	bne	v1,at,404d78 <fail>
  40057c:	00000000 	nop
  400580:	2402ffff 	li	v0,-1
  400584:	70431820 	clz	v1,v0
  400588:	146011fb 	bnez	v1,404d78 <fail>
  40058c:	00000000 	nop
  400590:	3c020fff 	lui	v0,0xfff
  400594:	70431820 	clz	v1,v0
  400598:	24010004 	li	at,4
  40059c:	146111f6 	bne	v1,at,404d78 <fail>
  4005a0:	00000000 	nop
  4005a4:	24020004 	li	v0,4
  4005a8:	3c040040 	lui	a0,0x40
  4005ac:	248451cc 	addiu	a0,a0,20940
  4005b0:	0000000c 	syscall
  4005b4:	24020004 	li	v0,4
  4005b8:	24030002 	li	v1,2
  4005bc:	14600002 	bnez	v1,4005c8 <l16+0x100>
  4005c0:	0043001a 	div	zero,v0,v1
  4005c4:	0007000d 	break	0x7
  4005c8:	2401ffff 	li	at,-1
  4005cc:	14610004 	bne	v1,at,4005e0 <l16+0x118>
  4005d0:	3c018000 	lui	at,0x8000
  4005d4:	14410002 	bne	v0,at,4005e0 <l16+0x118>
  4005d8:	00000000 	nop
  4005dc:	0006000d 	break	0x6
  4005e0:	00004012 	mflo	t0
  4005e4:	24010002 	li	at,2
  4005e8:	150111e3 	bne	t0,at,404d78 <fail>
  4005ec:	00000000 	nop
  4005f0:	00004010 	mfhi	t0
  4005f4:	150011e0 	bnez	t0,404d78 <fail>
  4005f8:	00000000 	nop
  4005fc:	2403fffe 	li	v1,-2
  400600:	14600002 	bnez	v1,40060c <l16+0x144>
  400604:	0043001a 	div	zero,v0,v1
  400608:	0007000d 	break	0x7
  40060c:	2401ffff 	li	at,-1
  400610:	14610004 	bne	v1,at,400624 <l16+0x15c>
  400614:	3c018000 	lui	at,0x8000
  400618:	14410002 	bne	v0,at,400624 <l16+0x15c>
  40061c:	00000000 	nop
  400620:	0006000d 	break	0x6
  400624:	00004012 	mflo	t0
  400628:	2401fffe 	li	at,-2
  40062c:	150111d2 	bne	t0,at,404d78 <fail>
  400630:	00000000 	nop
  400634:	00004010 	mfhi	t0
  400638:	150011cf 	bnez	t0,404d78 <fail>
  40063c:	00000000 	nop
  400640:	3c028000 	lui	v0,0x8000
  400644:	2403ffff 	li	v1,-1
  400648:	14600002 	bnez	v1,400654 <l16+0x18c>
  40064c:	0043001a 	div	zero,v0,v1
  400650:	0007000d 	break	0x7
  400654:	2401ffff 	li	at,-1
  400658:	14610004 	bne	v1,at,40066c <l16+0x1a4>
  40065c:	3c018000 	lui	at,0x8000
  400660:	14410002 	bne	v0,at,40066c <l16+0x1a4>
  400664:	00000000 	nop
  400668:	0006000d 	break	0x6
  40066c:	00004012 	mflo	t0
  400670:	24020001 	li	v0,1
  400674:	2403ffff 	li	v1,-1
  400678:	14600002 	bnez	v1,400684 <l16+0x1bc>
  40067c:	0043001a 	div	zero,v0,v1
  400680:	0007000d 	break	0x7
  400684:	2401ffff 	li	at,-1
  400688:	14610004 	bne	v1,at,40069c <l16+0x1d4>
  40068c:	3c018000 	lui	at,0x8000
  400690:	14410002 	bne	v0,at,40069c <l16+0x1d4>
  400694:	00000000 	nop
  400698:	0006000d 	break	0x6
  40069c:	00004012 	mflo	t0
  4006a0:	2401ffff 	li	at,-1
  4006a4:	150111b4 	bne	t0,at,404d78 <fail>
  4006a8:	00000000 	nop
  4006ac:	00004010 	mfhi	t0
  4006b0:	150011b1 	bnez	t0,404d78 <fail>
  4006b4:	00000000 	nop
  4006b8:	24020004 	li	v0,4
  4006bc:	3c040040 	lui	a0,0x40
  4006c0:	248451d9 	addiu	a0,a0,20953
  4006c4:	0000000c 	syscall
  4006c8:	0007000d 	break	0x7
  4006cc:	24020004 	li	v0,4
  4006d0:	3c040040 	lui	a0,0x40
  4006d4:	24845204 	addiu	a0,a0,20996
  4006d8:	0000000c 	syscall
  4006dc:	24020004 	li	v0,4
  4006e0:	24030002 	li	v1,2
  4006e4:	2404fffe 	li	a0,-2
  4006e8:	14600002 	bnez	v1,4006f4 <l16+0x22c>
  4006ec:	0043001b 	divu	zero,v0,v1
  4006f0:	0007000d 	break	0x7
  4006f4:	00002812 	mflo	a1
  4006f8:	24010002 	li	at,2
  4006fc:	14a1119e 	bne	a1,at,404d78 <fail>
  400700:	00000000 	nop
  400704:	00002810 	mfhi	a1
  400708:	14a0119b 	bnez	a1,404d78 <fail>
  40070c:	00000000 	nop
  400710:	0043001b 	divu	zero,v0,v1
  400714:	00002812 	mflo	a1
  400718:	24010002 	li	at,2
  40071c:	14a11196 	bne	a1,at,404d78 <fail>
  400720:	00000000 	nop
  400724:	00002810 	mfhi	a1
  400728:	14a01193 	bnez	a1,404d78 <fail>
  40072c:	00000000 	nop
  400730:	14800002 	bnez	a0,40073c <l16+0x274>
  400734:	0044001b 	divu	zero,v0,a0
  400738:	0007000d 	break	0x7
  40073c:	00002812 	mflo	a1
  400740:	14a0118d 	bnez	a1,404d78 <fail>
  400744:	00000000 	nop
  400748:	00002810 	mfhi	a1
  40074c:	24010004 	li	at,4
  400750:	14a11189 	bne	a1,at,404d78 <fail>
  400754:	00000000 	nop
  400758:	3c028000 	lui	v0,0x8000
  40075c:	2404ffff 	li	a0,-1
  400760:	14800002 	bnez	a0,40076c <l16+0x2a4>
  400764:	0044001b 	divu	zero,v0,a0
  400768:	0007000d 	break	0x7
  40076c:	00002812 	mflo	a1
  400770:	24020001 	li	v0,1
  400774:	2404ffff 	li	a0,-1
  400778:	14800002 	bnez	a0,400784 <l16+0x2bc>
  40077c:	0044001b 	divu	zero,v0,a0
  400780:	0007000d 	break	0x7
  400784:	00002812 	mflo	a1
  400788:	14a0117b 	bnez	a1,404d78 <fail>
  40078c:	00000000 	nop
  400790:	00002810 	mfhi	a1
  400794:	24010001 	li	at,1
  400798:	14a11177 	bne	a1,at,404d78 <fail>
  40079c:	00000000 	nop
  4007a0:	24020004 	li	v0,4
  4007a4:	3c040040 	lui	a0,0x40
  4007a8:	24845212 	addiu	a0,a0,21010
  4007ac:	0000000c 	syscall
  4007b0:	14000002 	bnez	zero,4007bc <l16+0x2f4>
  4007b4:	0040001b 	divu	zero,v0,zero
  4007b8:	0007000d 	break	0x7
  4007bc:	00002812 	mflo	a1
  4007c0:	24020004 	li	v0,4
  4007c4:	3c040040 	lui	a0,0x40
  4007c8:	2484523d 	addiu	a0,a0,21053
  4007cc:	0000000c 	syscall
  4007d0:	081001f8 	j	4007e0 <l17>
  4007d4:	00000000 	nop
  4007d8:	0810135e 	j	404d78 <fail>
  4007dc:	00000000 	nop

004007e0 <l17>:
  4007e0:	24020004 	li	v0,4
  4007e4:	3c040040 	lui	a0,0x40
  4007e8:	24845248 	addiu	a0,a0,21064
  4007ec:	0000000c 	syscall
  4007f0:	0c100200 	jal	400800 <l18>
  4007f4:	00000000 	nop

004007f8 <l19>:
  4007f8:	08100206 	j	400818 <l20>
  4007fc:	00000000 	nop

00400800 <l18>:
  400800:	3c040040 	lui	a0,0x40
  400804:	248407f8 	addiu	a0,a0,2040
  400808:	17e4115b 	bne	ra,a0,404d78 <fail>
  40080c:	00000000 	nop
  400810:	03e00008 	jr	ra
  400814:	00000000 	nop

00400818 <l20>:
  400818:	24020004 	li	v0,4
  40081c:	3c040040 	lui	a0,0x40
  400820:	24845255 	addiu	a0,a0,21077
  400824:	0000000c 	syscall
  400828:	3c020040 	lui	v0,0x40
  40082c:	24420840 	addiu	v0,v0,2112
  400830:	00401809 	jalr	v1,v0
  400834:	00000000 	nop

00400838 <l23>:
  400838:	08100216 	j	400858 <l22>
  40083c:	00000000 	nop

00400840 <l21>:
  400840:	3c040040 	lui	a0,0x40
  400844:	24840838 	addiu	a0,a0,2104
  400848:	1464114b 	bne	v1,a0,404d78 <fail>
  40084c:	00000000 	nop
  400850:	00600008 	jr	v1
  400854:	00000000 	nop

00400858 <l22>:
  400858:	3c020040 	lui	v0,0x40
  40085c:	24420870 	addiu	v0,v0,2160
  400860:	0040f809 	jalr	v0
  400864:	00000000 	nop

00400868 <l23a>:
  400868:	08100222 	j	400888 <l22a>
  40086c:	00000000 	nop

00400870 <l21a>:
  400870:	3c040040 	lui	a0,0x40
  400874:	24840868 	addiu	a0,a0,2152
  400878:	17e4113f 	bne	ra,a0,404d78 <fail>
  40087c:	00000000 	nop
  400880:	03e00008 	jr	ra
  400884:	00000000 	nop

00400888 <l22a>:
  400888:	24020004 	li	v0,4
  40088c:	3c040040 	lui	a0,0x40
  400890:	24845263 	addiu	a0,a0,21091
  400894:	0000000c 	syscall
  400898:	3c020040 	lui	v0,0x40
  40089c:	244208a4 	addiu	v0,v0,2212
  4008a0:	20420002 	addi	v0,v0,2

004008a4 <l24>:
  4008a4:	00401809 	jalr	v1,v0
  4008a8:	00000000 	nop
  4008ac:	24020004 	li	v0,4
  4008b0:	3c040040 	lui	a0,0x40
  4008b4:	2484528d 	addiu	a0,a0,21133
  4008b8:	0000000c 	syscall
  4008bc:	3c020040 	lui	v0,0x40
  4008c0:	244208d4 	addiu	v0,v0,2260
  4008c4:	00400008 	jr	v0
  4008c8:	00000000 	nop
  4008cc:	0810135e 	j	404d78 <fail>
  4008d0:	00000000 	nop

004008d4 <l25>:
  4008d4:	24020004 	li	v0,4
  4008d8:	3c040040 	lui	a0,0x40
  4008dc:	24845299 	addiu	a0,a0,21145
  4008e0:	0000000c 	syscall
  4008e4:	3c020040 	lui	v0,0x40
  4008e8:	244208f0 	addiu	v0,v0,2288
  4008ec:	20420002 	addi	v0,v0,2

004008f0 <l27>:
  4008f0:	00400008 	jr	v0
  4008f4:	00000000 	nop
  4008f8:	24020004 	li	v0,4
  4008fc:	3c040040 	lui	a0,0x40
  400900:	248452c3 	addiu	a0,a0,21187
  400904:	0000000c 	syscall
  400908:	24040065 	li	a0,101
  40090c:	2485000a 	addiu	a1,a0,10
  400910:	2401006f 	li	at,111
  400914:	14a11118 	bne	a1,at,404d78 <fail>
  400918:	00000000 	nop
  40091c:	24020004 	li	v0,4
  400920:	3c040040 	lui	a0,0x40
  400924:	248452cf 	addiu	a0,a0,21199
  400928:	0000000c 	syscall
  40092c:	3c020040 	lui	v0,0x40
  400930:	24425304 	addiu	v0,v0,21252
  400934:	8c430000 	lw	v1,0(v0)
  400938:	8c440004 	lw	a0,4(v0)
  40093c:	24010001 	li	at,1
  400940:	1461110d 	bne	v1,at,404d78 <fail>
  400944:	00000000 	nop
  400948:	2401ffff 	li	at,-1
  40094c:	1481110a 	bne	a0,at,404d78 <fail>
  400950:	00000000 	nop
  400954:	8c430008 	lw	v1,8(v0)
  400958:	8c44000c 	lw	a0,12(v0)
  40095c:	14601106 	bnez	v1,404d78 <fail>
  400960:	00000000 	nop
  400964:	3c010800 	lui	at,0x800
  400968:	14811103 	bne	a0,at,404d78 <fail>
  40096c:	00000000 	nop
  400970:	24020004 	li	v0,4
  400974:	3c040040 	lui	a0,0x40
  400978:	248452db 	addiu	a0,a0,21211
  40097c:	0000000c 	syscall
  400980:	3c0d7fff 	lui	t5,0x7fff
  400984:	35adffff 	ori	t5,t5,0xffff
  400988:	8da303e8 	lw	v1,1000(t5)
  40098c:	8da403ec 	lw	a0,1004(t5)
  400990:	8da303e9 	lw	v1,1001(t5)
  400994:	8da403ed 	lw	a0,1005(t5)
  400998:	24020004 	li	v0,4
  40099c:	3c040040 	lui	a0,0x40
  4009a0:	24845314 	addiu	a0,a0,21268
  4009a4:	0000000c 	syscall
  4009a8:	3c020040 	lui	v0,0x40
  4009ac:	24425346 	addiu	v0,v0,21318
  4009b0:	84430000 	lh	v1,0(v0)
  4009b4:	24010001 	li	at,1
  4009b8:	146110ef 	bne	v1,at,404d78 <fail>
  4009bc:	00000000 	nop
  4009c0:	84430002 	lh	v1,2(v0)
  4009c4:	2401ffff 	li	at,-1
  4009c8:	146110eb 	bne	v1,at,404d78 <fail>
  4009cc:	00000000 	nop
  4009d0:	84430004 	lh	v1,4(v0)
  4009d4:	146010e8 	bnez	v1,404d78 <fail>
  4009d8:	00000000 	nop
  4009dc:	84430006 	lh	v1,6(v0)
  4009e0:	24018000 	li	at,-32768
  4009e4:	146110e4 	bne	v1,at,404d78 <fail>
  4009e8:	00000000 	nop
  4009ec:	24020004 	li	v0,4
  4009f0:	3c040040 	lui	a0,0x40
  4009f4:	24845320 	addiu	a0,a0,21280
  4009f8:	0000000c 	syscall
  4009fc:	3c0d7fff 	lui	t5,0x7fff
  400a00:	35adffff 	ori	t5,t5,0xffff
  400a04:	85a303e8 	lh	v1,1000(t5)
  400a08:	85a303e9 	lh	v1,1001(t5)
  400a0c:	24020004 	li	v0,4
  400a10:	3c040040 	lui	a0,0x40
  400a14:	2484534e 	addiu	a0,a0,21326
  400a18:	0000000c 	syscall
  400a1c:	3c020040 	lui	v0,0x40
  400a20:	24425346 	addiu	v0,v0,21318
  400a24:	94430000 	lhu	v1,0(v0)
  400a28:	24010001 	li	at,1
  400a2c:	146110d2 	bne	v1,at,404d78 <fail>
  400a30:	00000000 	nop
  400a34:	94430002 	lhu	v1,2(v0)
  400a38:	3401ffff 	li	at,0xffff
  400a3c:	146110ce 	bne	v1,at,404d78 <fail>
  400a40:	00000000 	nop
  400a44:	94430004 	lhu	v1,4(v0)
  400a48:	146010cb 	bnez	v1,404d78 <fail>
  400a4c:	00000000 	nop
  400a50:	94430006 	lhu	v1,6(v0)
  400a54:	34018000 	li	at,0x8000
  400a58:	146110c7 	bne	v1,at,404d78 <fail>
  400a5c:	00000000 	nop
  400a60:	24020004 	li	v0,4
  400a64:	3c040040 	lui	a0,0x40
  400a68:	24845320 	addiu	a0,a0,21280
  400a6c:	0000000c 	syscall
  400a70:	3c0d7fff 	lui	t5,0x7fff
  400a74:	35adffff 	ori	t5,t5,0xffff
  400a78:	95a303e8 	lhu	v1,1000(t5)
  400a7c:	95a303e9 	lhu	v1,1001(t5)
  400a80:	24020004 	li	v0,4
  400a84:	3c040040 	lui	a0,0x40
  400a88:	2484535b 	addiu	a0,a0,21339
  400a8c:	0000000c 	syscall
  400a90:	3c020040 	lui	v0,0x40
  400a94:	c0425368 	ll	v0,21352(v0)
  400a98:	2401000a 	li	at,10
  400a9c:	144110b6 	bne	v0,at,404d78 <fail>
  400aa0:	00000000 	nop
  400aa4:	20420001 	addi	v0,v0,1
  400aa8:	3c010040 	lui	at,0x40
  400aac:	e0225368 	sc	v0,21352(at)
  400ab0:	3c030040 	lui	v1,0x40
  400ab4:	8c635368 	lw	v1,21352(v1)
  400ab8:	144310af 	bne	v0,v1,404d78 <fail>
  400abc:	00000000 	nop
  400ac0:	24020004 	li	v0,4
  400ac4:	3c040040 	lui	a0,0x40
  400ac8:	2484536c 	addiu	a0,a0,21356
  400acc:	0000000c 	syscall
  400ad0:	3c020000 	lui	v0,0x0
  400ad4:	144010a8 	bnez	v0,404d78 <fail>
  400ad8:	00000000 	nop
  400adc:	3c020001 	lui	v0,0x1
  400ae0:	00021402 	srl	v0,v0,0x10
  400ae4:	2442ffff 	addiu	v0,v0,-1
  400ae8:	144010a3 	bnez	v0,404d78 <fail>
  400aec:	00000000 	nop
  400af0:	3c020001 	lui	v0,0x1
  400af4:	3042ffff 	andi	v0,v0,0xffff
  400af8:	1440109f 	bnez	v0,404d78 <fail>
  400afc:	00000000 	nop
  400b00:	3c02ffff 	lui	v0,0xffff
  400b04:	00021402 	srl	v0,v0,0x10
  400b08:	24420001 	addiu	v0,v0,1
  400b0c:	3042ffff 	andi	v0,v0,0xffff
  400b10:	14401099 	bnez	v0,404d78 <fail>
  400b14:	00000000 	nop
  400b18:	24020004 	li	v0,4
  400b1c:	3c040040 	lui	a0,0x40
  400b20:	24845379 	addiu	a0,a0,21369
  400b24:	0000000c 	syscall
  400b28:	3c020040 	lui	v0,0x40
  400b2c:	24425388 	addiu	v0,v0,21384
  400b30:	8c430000 	lw	v1,0(v0)
  400b34:	24010001 	li	at,1
  400b38:	1461108f 	bne	v1,at,404d78 <fail>
  400b3c:	00000000 	nop
  400b40:	8c430004 	lw	v1,4(v0)
  400b44:	2401ffff 	li	at,-1
  400b48:	1461108b 	bne	v1,at,404d78 <fail>
  400b4c:	00000000 	nop
  400b50:	8c430008 	lw	v1,8(v0)
  400b54:	14601088 	bnez	v1,404d78 <fail>
  400b58:	00000000 	nop
  400b5c:	8c43000c 	lw	v1,12(v0)
  400b60:	3c010800 	lui	at,0x800
  400b64:	14611084 	bne	v1,at,404d78 <fail>
  400b68:	00000000 	nop
  400b6c:	24020000 	li	v0,0
  400b70:	3c030040 	lui	v1,0x40
  400b74:	00621821 	addu	v1,v1,v0
  400b78:	8c635388 	lw	v1,21384(v1)
  400b7c:	24010001 	li	at,1
  400b80:	1461107d 	bne	v1,at,404d78 <fail>
  400b84:	00000000 	nop
  400b88:	20420004 	addi	v0,v0,4
  400b8c:	3c030040 	lui	v1,0x40
  400b90:	00621821 	addu	v1,v1,v0
  400b94:	8c635388 	lw	v1,21384(v1)
  400b98:	2401ffff 	li	at,-1
  400b9c:	14611076 	bne	v1,at,404d78 <fail>
  400ba0:	00000000 	nop
  400ba4:	20420004 	addi	v0,v0,4
  400ba8:	3c030040 	lui	v1,0x40
  400bac:	00621821 	addu	v1,v1,v0
  400bb0:	8c635388 	lw	v1,21384(v1)
  400bb4:	14601070 	bnez	v1,404d78 <fail>
  400bb8:	00000000 	nop
  400bbc:	20420004 	addi	v0,v0,4
  400bc0:	3c030040 	lui	v1,0x40
  400bc4:	00621821 	addu	v1,v1,v0
  400bc8:	8c635388 	lw	v1,21384(v1)
  400bcc:	3c010800 	lui	at,0x800
  400bd0:	14611069 	bne	v1,at,404d78 <fail>
  400bd4:	00000000 	nop
  400bd8:	3c020040 	lui	v0,0x40
  400bdc:	24425388 	addiu	v0,v0,21384
  400be0:	2042000c 	addi	v0,v0,12
  400be4:	8c43fff4 	lw	v1,-12(v0)
  400be8:	24010001 	li	at,1
  400bec:	14611062 	bne	v1,at,404d78 <fail>
  400bf0:	00000000 	nop
  400bf4:	8c43fff8 	lw	v1,-8(v0)
  400bf8:	2401ffff 	li	at,-1
  400bfc:	1461105e 	bne	v1,at,404d78 <fail>
  400c00:	00000000 	nop
  400c04:	8c43fffc 	lw	v1,-4(v0)
  400c08:	1460105b 	bnez	v1,404d78 <fail>
  400c0c:	00000000 	nop
  400c10:	8c430000 	lw	v1,0(v0)
  400c14:	3c010800 	lui	at,0x800
  400c18:	14611057 	bne	v1,at,404d78 <fail>
  400c1c:	00000000 	nop
  400c20:	24020004 	li	v0,4
  400c24:	3c040040 	lui	a0,0x40
  400c28:	24845320 	addiu	a0,a0,21280
  400c2c:	0000000c 	syscall
  400c30:	3c0d7fff 	lui	t5,0x7fff
  400c34:	35adffff 	ori	t5,t5,0xffff
  400c38:	8da303e8 	lw	v1,1000(t5)
  400c3c:	8da303e9 	lw	v1,1001(t5)
  400c40:	24020004 	li	v0,4
  400c44:	3c040040 	lui	a0,0x40
  400c48:	24845398 	addiu	a0,a0,21400
  400c4c:	0000000c 	syscall
  400c50:	00000011 	mthi	zero
  400c54:	00000013 	mtlo	zero
  400c58:	70000000 	madd	zero,zero
  400c5c:	00001810 	mfhi	v1
  400c60:	14601045 	bnez	v1,404d78 <fail>
  400c64:	00000000 	nop
  400c68:	00001812 	mflo	v1
  400c6c:	14601042 	bnez	v1,404d78 <fail>
  400c70:	00000000 	nop
  400c74:	00000013 	mtlo	zero
  400c78:	00000011 	mthi	zero
  400c7c:	24040001 	li	a0,1
  400c80:	70840000 	madd	a0,a0
  400c84:	00001810 	mfhi	v1
  400c88:	1460103b 	bnez	v1,404d78 <fail>
  400c8c:	00000000 	nop
  400c90:	00001812 	mflo	v1
  400c94:	24010001 	li	at,1
  400c98:	14611037 	bne	v1,at,404d78 <fail>
  400c9c:	00000000 	nop
  400ca0:	24030001 	li	v1,1
  400ca4:	00600013 	mtlo	v1
  400ca8:	00000011 	mthi	zero
  400cac:	2404ffff 	li	a0,-1
  400cb0:	70640000 	madd	v1,a0
  400cb4:	00001810 	mfhi	v1
  400cb8:	1460102f 	bnez	v1,404d78 <fail>
  400cbc:	00000000 	nop
  400cc0:	00001812 	mflo	v1
  400cc4:	1460102c 	bnez	v1,404d78 <fail>
  400cc8:	00000000 	nop
  400ccc:	00000013 	mtlo	zero
  400cd0:	00000011 	mthi	zero
  400cd4:	24030001 	li	v1,1
  400cd8:	2404ffff 	li	a0,-1
  400cdc:	70640000 	madd	v1,a0
  400ce0:	00001810 	mfhi	v1
  400ce4:	2401ffff 	li	at,-1
  400ce8:	14611023 	bne	v1,at,404d78 <fail>
  400cec:	00000000 	nop
  400cf0:	00001812 	mflo	v1
  400cf4:	2401ffff 	li	at,-1
  400cf8:	1461101f 	bne	v1,at,404d78 <fail>
  400cfc:	00000000 	nop
  400d00:	24080001 	li	t0,1
  400d04:	01000013 	mtlo	t0
  400d08:	00000011 	mthi	zero
  400d0c:	24080002 	li	t0,2
  400d10:	2409ffff 	li	t1,-1
  400d14:	71090000 	madd	t0,t1
  400d18:	00001810 	mfhi	v1
  400d1c:	2401ffff 	li	at,-1
  400d20:	14611015 	bne	v1,at,404d78 <fail>
  400d24:	00000000 	nop
  400d28:	00001812 	mflo	v1
  400d2c:	2401ffff 	li	at,-1
  400d30:	14611011 	bne	v1,at,404d78 <fail>
  400d34:	00000000 	nop
  400d38:	00000013 	mtlo	zero
  400d3c:	00000011 	mthi	zero
  400d40:	3c040001 	lui	a0,0x1
  400d44:	70840000 	madd	a0,a0
  400d48:	00001810 	mfhi	v1
  400d4c:	24010001 	li	at,1
  400d50:	14611009 	bne	v1,at,404d78 <fail>
  400d54:	00000000 	nop
  400d58:	00001812 	mflo	v1
  400d5c:	14601006 	bnez	v1,404d78 <fail>
  400d60:	00000000 	nop
  400d64:	3c040001 	lui	a0,0x1
  400d68:	70840000 	madd	a0,a0
  400d6c:	00001810 	mfhi	v1
  400d70:	24010002 	li	at,2
  400d74:	14611000 	bne	v1,at,404d78 <fail>
  400d78:	00000000 	nop
  400d7c:	00001812 	mflo	v1
  400d80:	14600ffd 	bnez	v1,404d78 <fail>
  400d84:	00000000 	nop
  400d88:	24020004 	li	v0,4
  400d8c:	3c040040 	lui	a0,0x40
  400d90:	248453a6 	addiu	a0,a0,21414
  400d94:	0000000c 	syscall
  400d98:	00000011 	mthi	zero
  400d9c:	00000013 	mtlo	zero
  400da0:	70000001 	maddu	zero,zero
  400da4:	00001810 	mfhi	v1
  400da8:	14600ff3 	bnez	v1,404d78 <fail>
  400dac:	00000000 	nop
  400db0:	00001812 	mflo	v1
  400db4:	14600ff0 	bnez	v1,404d78 <fail>
  400db8:	00000000 	nop
  400dbc:	24040001 	li	a0,1
  400dc0:	70840001 	maddu	a0,a0
  400dc4:	00001810 	mfhi	v1
  400dc8:	14600feb 	bnez	v1,404d78 <fail>
  400dcc:	00000000 	nop
  400dd0:	00001812 	mflo	v1
  400dd4:	24010001 	li	at,1
  400dd8:	14610fe7 	bne	v1,at,404d78 <fail>
  400ddc:	00000000 	nop
  400de0:	2404ffff 	li	a0,-1
  400de4:	70840001 	maddu	a0,a0
  400de8:	00001810 	mfhi	v1
  400dec:	2401fffe 	li	at,-2
  400df0:	14610fe1 	bne	v1,at,404d78 <fail>
  400df4:	00000000 	nop
  400df8:	00001812 	mflo	v1
  400dfc:	24010002 	li	at,2
  400e00:	14610fdd 	bne	v1,at,404d78 <fail>
  400e04:	00000000 	nop
  400e08:	24020004 	li	v0,4
  400e0c:	3c040040 	lui	a0,0x40
  400e10:	248453b5 	addiu	a0,a0,21429
  400e14:	0000000c 	syscall
  400e18:	24027f7f 	li	v0,32639
  400e1c:	40821800 	mtc0	v0,c0_entrylo1
  400e20:	40041800 	mfc0	a0,c0_entrylo1
  400e24:	14440fd4 	bne	v0,a0,404d78 <fail>
  400e28:	00000000 	nop
  400e2c:	24027f7f 	li	v0,32639
  400e30:	44821800 	mtc1	v0,$f3
  400e34:	44041800 	mfc1	a0,$f3
  400e38:	14440fcf 	bne	v0,a0,404d78 <fail>
  400e3c:	00000000 	nop
  400e40:	24027f7f 	li	v0,32639
  400e44:	3403f7f7 	li	v1,0xf7f7
  400e48:	44822000 	mtc1	v0,$f4
  400e4c:	44062000 	mfc1	a2,$f4
  400e50:	14460fc9 	bne	v0,a2,404d78 <fail>
  400e54:	00000000 	nop
  400e58:	14670fc7 	bne	v1,a3,404d78 <fail>
  400e5c:	00000000 	nop
  400e60:	24020004 	li	v0,4
  400e64:	3c040040 	lui	a0,0x40
  400e68:	248453d9 	addiu	a0,a0,21465
  400e6c:	0000000c 	syscall
  400e70:	00000011 	mthi	zero
  400e74:	00001010 	mfhi	v0
  400e78:	14400fbf 	bnez	v0,404d78 <fail>
  400e7c:	00000000 	nop
  400e80:	00000013 	mtlo	zero
  400e84:	00001012 	mflo	v0
  400e88:	14400fbb 	bnez	v0,404d78 <fail>
  400e8c:	00000000 	nop
  400e90:	24020001 	li	v0,1
  400e94:	00400011 	mthi	v0
  400e98:	00001810 	mfhi	v1
  400e9c:	14620fb6 	bne	v1,v0,404d78 <fail>
  400ea0:	00000000 	nop
  400ea4:	24020001 	li	v0,1
  400ea8:	00400013 	mtlo	v0
  400eac:	00001812 	mflo	v1
  400eb0:	14620fb1 	bne	v1,v0,404d78 <fail>
  400eb4:	00000000 	nop
  400eb8:	2402ffff 	li	v0,-1
  400ebc:	00400011 	mthi	v0
  400ec0:	00001810 	mfhi	v1
  400ec4:	14620fac 	bne	v1,v0,404d78 <fail>
  400ec8:	00000000 	nop
  400ecc:	2402ffff 	li	v0,-1
  400ed0:	00400013 	mtlo	v0
  400ed4:	00001812 	mflo	v1
  400ed8:	14620fa7 	bne	v1,v0,404d78 <fail>
  400edc:	00000000 	nop
  400ee0:	24020004 	li	v0,4
  400ee4:	3c040040 	lui	a0,0x40
  400ee8:	248453f5 	addiu	a0,a0,21493
  400eec:	0000000c 	syscall
  400ef0:	00000011 	mthi	zero
  400ef4:	00000013 	mtlo	zero
  400ef8:	70000004 	msub	zero,zero
  400efc:	00001810 	mfhi	v1
  400f00:	14600f9d 	bnez	v1,404d78 <fail>
  400f04:	00000000 	nop
  400f08:	00001812 	mflo	v1
  400f0c:	14600f9a 	bnez	v1,404d78 <fail>
  400f10:	00000000 	nop
  400f14:	00000011 	mthi	zero
  400f18:	00000013 	mtlo	zero
  400f1c:	24040001 	li	a0,1
  400f20:	70840004 	msub	a0,a0
  400f24:	00001810 	mfhi	v1
  400f28:	2401ffff 	li	at,-1
  400f2c:	14610f92 	bne	v1,at,404d78 <fail>
  400f30:	00000000 	nop
  400f34:	00001812 	mflo	v1
  400f38:	2401ffff 	li	at,-1
  400f3c:	14610f8e 	bne	v1,at,404d78 <fail>
  400f40:	00000000 	nop
  400f44:	24040001 	li	a0,1
  400f48:	70640004 	msub	v1,a0
  400f4c:	00001810 	mfhi	v1
  400f50:	14600f89 	bnez	v1,404d78 <fail>
  400f54:	00000000 	nop
  400f58:	00001812 	mflo	v1
  400f5c:	14600f86 	bnez	v1,404d78 <fail>
  400f60:	00000000 	nop
  400f64:	00000011 	mthi	zero
  400f68:	00000013 	mtlo	zero
  400f6c:	3c040001 	lui	a0,0x1
  400f70:	70840004 	msub	a0,a0
  400f74:	00001810 	mfhi	v1
  400f78:	2401ffff 	li	at,-1
  400f7c:	14610f7e 	bne	v1,at,404d78 <fail>
  400f80:	00000000 	nop
  400f84:	00001812 	mflo	v1
  400f88:	14600f7b 	bnez	v1,404d78 <fail>
  400f8c:	00000000 	nop
  400f90:	00000013 	mtlo	zero
  400f94:	00000011 	mthi	zero
  400f98:	24040001 	li	a0,1
  400f9c:	2405ffff 	li	a1,-1
  400fa0:	70a40004 	msub	a1,a0
  400fa4:	00001810 	mfhi	v1
  400fa8:	14600f73 	bnez	v1,404d78 <fail>
  400fac:	00000000 	nop
  400fb0:	00001812 	mflo	v1
  400fb4:	24010001 	li	at,1
  400fb8:	14610f6f 	bne	v1,at,404d78 <fail>
  400fbc:	00000000 	nop
  400fc0:	24020004 	li	v0,4
  400fc4:	3c040040 	lui	a0,0x40
  400fc8:	24845403 	addiu	a0,a0,21507
  400fcc:	0000000c 	syscall
  400fd0:	00000011 	mthi	zero
  400fd4:	00000013 	mtlo	zero
  400fd8:	70000005 	msubu	zero,zero
  400fdc:	00001810 	mfhi	v1
  400fe0:	14600f65 	bnez	v1,404d78 <fail>
  400fe4:	00000000 	nop
  400fe8:	00001812 	mflo	v1
  400fec:	14600f62 	bnez	v1,404d78 <fail>
  400ff0:	00000000 	nop
  400ff4:	00000011 	mthi	zero
  400ff8:	00000013 	mtlo	zero
  400ffc:	24040001 	li	a0,1
  401000:	70840005 	msubu	a0,a0
  401004:	00001810 	mfhi	v1
  401008:	2401ffff 	li	at,-1
  40100c:	14610f5a 	bne	v1,at,404d78 <fail>
  401010:	00000000 	nop
  401014:	00001812 	mflo	v1
  401018:	2401ffff 	li	at,-1
  40101c:	14610f56 	bne	v1,at,404d78 <fail>
  401020:	00000000 	nop
  401024:	00000013 	mtlo	zero
  401028:	00000011 	mthi	zero
  40102c:	24040001 	li	a0,1
  401030:	2405ffff 	li	a1,-1
  401034:	70a40005 	msubu	a1,a0
  401038:	00001810 	mfhi	v1
  40103c:	2401ffff 	li	at,-1
  401040:	14610f4d 	bne	v1,at,404d78 <fail>
  401044:	00000000 	nop
  401048:	00001812 	mflo	v1
  40104c:	24010001 	li	at,1
  401050:	14610f49 	bne	v1,at,404d78 <fail>
  401054:	00000000 	nop
  401058:	24020004 	li	v0,4
  40105c:	3c040040 	lui	a0,0x40
  401060:	24845412 	addiu	a0,a0,21522
  401064:	0000000c 	syscall
  401068:	24020001 	li	v0,1
  40106c:	24010000 	li	at,0
  401070:	00410018 	mult	v0,at
  401074:	00001812 	mflo	v1
  401078:	14600f3f 	bnez	v1,404d78 <fail>
  40107c:	00000000 	nop
  401080:	24010001 	li	at,1
  401084:	00410018 	mult	v0,at
  401088:	00001812 	mflo	v1
  40108c:	24010001 	li	at,1
  401090:	14610f39 	bne	v1,at,404d78 <fail>
  401094:	00000000 	nop
  401098:	2401000a 	li	at,10
  40109c:	00410018 	mult	v0,at
  4010a0:	00001812 	mflo	v1
  4010a4:	2401000a 	li	at,10
  4010a8:	14610f33 	bne	v1,at,404d78 <fail>
  4010ac:	00000000 	nop
  4010b0:	70001002 	mul	v0,zero,zero
  4010b4:	14400f30 	bnez	v0,404d78 <fail>
  4010b8:	00000000 	nop
  4010bc:	00001810 	mfhi	v1
  4010c0:	14600f2d 	bnez	v1,404d78 <fail>
  4010c4:	00000000 	nop
  4010c8:	00001812 	mflo	v1
  4010cc:	14600f2a 	bnez	v1,404d78 <fail>
  4010d0:	00000000 	nop
  4010d4:	24040001 	li	a0,1
  4010d8:	70841002 	mul	v0,a0,a0
  4010dc:	24010001 	li	at,1
  4010e0:	14410f25 	bne	v0,at,404d78 <fail>
  4010e4:	00000000 	nop
  4010e8:	00001810 	mfhi	v1
  4010ec:	14600f22 	bnez	v1,404d78 <fail>
  4010f0:	00000000 	nop
  4010f4:	00001812 	mflo	v1
  4010f8:	24010001 	li	at,1
  4010fc:	14610f1e 	bne	v1,at,404d78 <fail>
  401100:	00000000 	nop
  401104:	2404ffff 	li	a0,-1
  401108:	70841002 	mul	v0,a0,a0
  40110c:	24010001 	li	at,1
  401110:	14410f19 	bne	v0,at,404d78 <fail>
  401114:	00000000 	nop
  401118:	00001810 	mfhi	v1
  40111c:	14600f16 	bnez	v1,404d78 <fail>
  401120:	00000000 	nop
  401124:	00001812 	mflo	v1
  401128:	24010001 	li	at,1
  40112c:	14610f12 	bne	v1,at,404d78 <fail>
  401130:	00000000 	nop
  401134:	2404ffff 	li	a0,-1
  401138:	24050001 	li	a1,1
  40113c:	70851002 	mul	v0,a0,a1
  401140:	2401ffff 	li	at,-1
  401144:	14410f0c 	bne	v0,at,404d78 <fail>
  401148:	00000000 	nop
  40114c:	00001810 	mfhi	v1
  401150:	2401ffff 	li	at,-1
  401154:	14610f08 	bne	v1,at,404d78 <fail>
  401158:	00000000 	nop
  40115c:	00001812 	mflo	v1
  401160:	2401ffff 	li	at,-1
  401164:	14610f04 	bne	v1,at,404d78 <fail>
  401168:	00000000 	nop
  40116c:	3c040001 	lui	a0,0x1
  401170:	70841002 	mul	v0,a0,a0
  401174:	14400f00 	bnez	v0,404d78 <fail>
  401178:	00000000 	nop
  40117c:	00001810 	mfhi	v1
  401180:	24010001 	li	at,1
  401184:	14610efc 	bne	v1,at,404d78 <fail>
  401188:	00000000 	nop
  40118c:	00001812 	mflo	v1
  401190:	14600ef9 	bnez	v1,404d78 <fail>
  401194:	00000000 	nop
  401198:	3c048000 	lui	a0,0x8000
  40119c:	70841002 	mul	v0,a0,a0
  4011a0:	14400ef5 	bnez	v0,404d78 <fail>
  4011a4:	00000000 	nop
  4011a8:	00001810 	mfhi	v1
  4011ac:	3c014000 	lui	at,0x4000
  4011b0:	14610ef1 	bne	v1,at,404d78 <fail>
  4011b4:	00000000 	nop
  4011b8:	00001812 	mflo	v1
  4011bc:	14600eee 	bnez	v1,404d78 <fail>
  4011c0:	00000000 	nop
  4011c4:	24020004 	li	v0,4
  4011c8:	3c040040 	lui	a0,0x40
  4011cc:	2484541f 	addiu	a0,a0,21535
  4011d0:	0000000c 	syscall
  4011d4:	00000019 	multu	zero,zero
  4011d8:	00001810 	mfhi	v1
  4011dc:	14600ee6 	bnez	v1,404d78 <fail>
  4011e0:	00000000 	nop
  4011e4:	00001812 	mflo	v1
  4011e8:	14600ee3 	bnez	v1,404d78 <fail>
  4011ec:	00000000 	nop
  4011f0:	24040001 	li	a0,1
  4011f4:	00840019 	multu	a0,a0
  4011f8:	00001810 	mfhi	v1
  4011fc:	14600ede 	bnez	v1,404d78 <fail>
  401200:	00000000 	nop
  401204:	00001812 	mflo	v1
  401208:	24010001 	li	at,1
  40120c:	14610eda 	bne	v1,at,404d78 <fail>
  401210:	00000000 	nop
  401214:	2404ffff 	li	a0,-1
  401218:	00840019 	multu	a0,a0
  40121c:	00001810 	mfhi	v1
  401220:	2401fffe 	li	at,-2
  401224:	14610ed4 	bne	v1,at,404d78 <fail>
  401228:	00000000 	nop
  40122c:	00001812 	mflo	v1
  401230:	24010001 	li	at,1
  401234:	14610ed0 	bne	v1,at,404d78 <fail>
  401238:	00000000 	nop
  40123c:	2404ffff 	li	a0,-1
  401240:	24050000 	li	a1,0
  401244:	00850019 	multu	a0,a1
  401248:	00001810 	mfhi	v1
  40124c:	14600eca 	bnez	v1,404d78 <fail>
  401250:	00000000 	nop
  401254:	00001812 	mflo	v1
  401258:	14600ec7 	bnez	v1,404d78 <fail>
  40125c:	00000000 	nop
  401260:	2404ffff 	li	a0,-1
  401264:	24050001 	li	a1,1
  401268:	00850019 	multu	a0,a1
  40126c:	00001810 	mfhi	v1
  401270:	14600ec1 	bnez	v1,404d78 <fail>
  401274:	00000000 	nop
  401278:	00001812 	mflo	v1
  40127c:	2401ffff 	li	at,-1
  401280:	14610ebd 	bne	v1,at,404d78 <fail>
  401284:	00000000 	nop
  401288:	3c040001 	lui	a0,0x1
  40128c:	00840019 	multu	a0,a0
  401290:	00001810 	mfhi	v1
  401294:	24010001 	li	at,1
  401298:	14610eb7 	bne	v1,at,404d78 <fail>
  40129c:	00000000 	nop
  4012a0:	00001812 	mflo	v1
  4012a4:	14600eb4 	bnez	v1,404d78 <fail>
  4012a8:	00000000 	nop
  4012ac:	3c048000 	lui	a0,0x8000
  4012b0:	00840019 	multu	a0,a0
  4012b4:	00001810 	mfhi	v1
  4012b8:	3c014000 	lui	at,0x4000
  4012bc:	14610eae 	bne	v1,at,404d78 <fail>
  4012c0:	00000000 	nop
  4012c4:	00001812 	mflo	v1
  4012c8:	14600eab 	bnez	v1,404d78 <fail>
  4012cc:	00000000 	nop
  4012d0:	3c03cecb 	lui	v1,0xcecb
  4012d4:	34638f27 	ori	v1,v1,0x8f27
  4012d8:	3c04fd87 	lui	a0,0xfd87
  4012dc:	3484b5f2 	ori	a0,a0,0xb5f2
  4012e0:	00640019 	multu	v1,a0
  4012e4:	00001810 	mfhi	v1
  4012e8:	3c01cccc 	lui	at,0xcccc
  4012ec:	3421cccb 	ori	at,at,0xcccb
  4012f0:	14610ea1 	bne	v1,at,404d78 <fail>
  4012f4:	00000000 	nop
  4012f8:	00001812 	mflo	v1
  4012fc:	3c017134 	lui	at,0x7134
  401300:	3421e5de 	ori	at,at,0xe5de
  401304:	14610e9c 	bne	v1,at,404d78 <fail>
  401308:	00000000 	nop
  40130c:	24020004 	li	v0,4
  401310:	3c040040 	lui	a0,0x40
  401314:	2484542e 	addiu	a0,a0,21550
  401318:	0000000c 	syscall
  40131c:	00000018 	mult	zero,zero
  401320:	00001012 	mflo	v0
  401324:	000217c3 	sra	v0,v0,0x1f
  401328:	00000810 	mfhi	at
  40132c:	10410002 	beq	v0,at,401338 <l27+0xa48>
  401330:	00000000 	nop
  401334:	0006000d 	break	0x6
  401338:	00001012 	mflo	v0
  40133c:	14400e8e 	bnez	v0,404d78 <fail>
  401340:	00000000 	nop
  401344:	24040001 	li	a0,1
  401348:	00840018 	mult	a0,a0
  40134c:	00001012 	mflo	v0
  401350:	000217c3 	sra	v0,v0,0x1f
  401354:	00000810 	mfhi	at
  401358:	10410002 	beq	v0,at,401364 <l27+0xa74>
  40135c:	00000000 	nop
  401360:	0006000d 	break	0x6
  401364:	00001012 	mflo	v0
  401368:	24010001 	li	at,1
  40136c:	14410e82 	bne	v0,at,404d78 <fail>
  401370:	00000000 	nop
  401374:	2404ffff 	li	a0,-1
  401378:	00840018 	mult	a0,a0
  40137c:	00001012 	mflo	v0
  401380:	000217c3 	sra	v0,v0,0x1f
  401384:	00000810 	mfhi	at
  401388:	10410002 	beq	v0,at,401394 <l27+0xaa4>
  40138c:	00000000 	nop
  401390:	0006000d 	break	0x6
  401394:	00001012 	mflo	v0
  401398:	24010001 	li	at,1
  40139c:	14410e76 	bne	v0,at,404d78 <fail>
  4013a0:	00000000 	nop
  4013a4:	2404ffff 	li	a0,-1
  4013a8:	24050001 	li	a1,1
  4013ac:	00850018 	mult	a0,a1
  4013b0:	00001012 	mflo	v0
  4013b4:	000217c3 	sra	v0,v0,0x1f
  4013b8:	00000810 	mfhi	at
  4013bc:	10410002 	beq	v0,at,4013c8 <l27+0xad8>
  4013c0:	00000000 	nop
  4013c4:	0006000d 	break	0x6
  4013c8:	00001012 	mflo	v0
  4013cc:	2401ffff 	li	at,-1
  4013d0:	14410e69 	bne	v0,at,404d78 <fail>
  4013d4:	00000000 	nop
  4013d8:	24020004 	li	v0,4
  4013dc:	3c040040 	lui	a0,0x40
  4013e0:	2484543c 	addiu	a0,a0,21564
  4013e4:	0000000c 	syscall
  4013e8:	3c040001 	lui	a0,0x1
  4013ec:	00840018 	mult	a0,a0
  4013f0:	00001012 	mflo	v0
  4013f4:	000217c3 	sra	v0,v0,0x1f
  4013f8:	00000810 	mfhi	at
  4013fc:	10410002 	beq	v0,at,401408 <l27+0xb18>
  401400:	00000000 	nop
  401404:	0006000d 	break	0x6
  401408:	00001012 	mflo	v0
  40140c:	14400e5a 	bnez	v0,404d78 <fail>
  401410:	00000000 	nop
  401414:	24020004 	li	v0,4
  401418:	3c040040 	lui	a0,0x40
  40141c:	24845454 	addiu	a0,a0,21588
  401420:	0000000c 	syscall
  401424:	24020001 	li	v0,1
  401428:	2403ffff 	li	v1,-1
  40142c:	00002027 	nor	a0,zero,zero
  401430:	2401ffff 	li	at,-1
  401434:	14810e50 	bne	a0,at,404d78 <fail>
  401438:	00000000 	nop
  40143c:	00422027 	nor	a0,v0,v0
  401440:	2401fffe 	li	at,-2
  401444:	14810e4c 	bne	a0,at,404d78 <fail>
  401448:	00000000 	nop
  40144c:	00432027 	nor	a0,v0,v1
  401450:	14800e49 	bnez	a0,404d78 <fail>
  401454:	00000000 	nop
  401458:	24020004 	li	v0,4
  40145c:	3c040040 	lui	a0,0x40
  401460:	24845461 	addiu	a0,a0,21601
  401464:	0000000c 	syscall
  401468:	24020001 	li	v0,1
  40146c:	2403ffff 	li	v1,-1
  401470:	00002025 	move	a0,zero
  401474:	14800e40 	bnez	a0,404d78 <fail>
  401478:	00000000 	nop
  40147c:	00422025 	or	a0,v0,v0
  401480:	24010001 	li	at,1
  401484:	14810e3c 	bne	a0,at,404d78 <fail>
  401488:	00000000 	nop
  40148c:	00432025 	or	a0,v0,v1
  401490:	2401ffff 	li	at,-1
  401494:	14810e38 	bne	a0,at,404d78 <fail>
  401498:	00000000 	nop
  40149c:	24020004 	li	v0,4
  4014a0:	3c040040 	lui	a0,0x40
  4014a4:	2484546d 	addiu	a0,a0,21613
  4014a8:	0000000c 	syscall
  4014ac:	24020001 	li	v0,1
  4014b0:	2403ffff 	li	v1,-1
  4014b4:	34040000 	li	a0,0x0
  4014b8:	14800e2f 	bnez	a0,404d78 <fail>
  4014bc:	00000000 	nop
  4014c0:	34440001 	ori	a0,v0,0x1
  4014c4:	24010001 	li	at,1
  4014c8:	14810e2b 	bne	a0,at,404d78 <fail>
  4014cc:	00000000 	nop
  4014d0:	3444ffff 	ori	a0,v0,0xffff
  4014d4:	3401ffff 	li	at,0xffff
  4014d8:	14810e27 	bne	a0,at,404d78 <fail>
  4014dc:	00000000 	nop
  4014e0:	24020004 	li	v0,4
  4014e4:	3c040042 	lui	a0,0x42
  4014e8:	2484db30 	addiu	a0,a0,-9424
  4014ec:	0000000c 	syscall
  4014f0:	3c020042 	lui	v0,0x42
  4014f4:	2442db2c 	addiu	v0,v0,-9428
  4014f8:	2042fffc 	addi	v0,v0,-4
  4014fc:	8c430000 	lw	v1,0(v0)
  401500:	24020004 	li	v0,4
  401504:	3c040042 	lui	a0,0x42
  401508:	2484db30 	addiu	a0,a0,-9424
  40150c:	0000000c 	syscall
  401510:	3c037f7f 	lui	v1,0x7f7f
  401514:	34637f7f 	ori	v1,v1,0x7f7f
  401518:	3c04f7f7 	lui	a0,0xf7f7
  40151c:	3484f7f7 	ori	a0,a0,0xf7f7
  401520:	3c020042 	lui	v0,0x42
  401524:	2442db64 	addiu	v0,v0,-9372
  401528:	ac430000 	sw	v1,0(v0)
  40152c:	ac440004 	sw	a0,4(v0)
  401530:	8c450000 	lw	a1,0(v0)
  401534:	8c460004 	lw	a2,4(v0)
  401538:	14650e0f 	bne	v1,a1,404d78 <fail>
  40153c:	00000000 	nop
  401540:	14840e0d 	bne	a0,a0,404d78 <fail>
  401544:	00000000 	nop
  401548:	24020004 	li	v0,4
  40154c:	3c040042 	lui	a0,0x42
  401550:	2484db3c 	addiu	a0,a0,-9412
  401554:	0000000c 	syscall
  401558:	3c0d7fff 	lui	t5,0x7fff
  40155c:	35adffff 	ori	t5,t5,0xffff
  401560:	ada303e8 	sw	v1,1000(t5)
  401564:	ada403ec 	sw	a0,1004(t5)
  401568:	ada303e9 	sw	v1,1001(t5)
  40156c:	ada403ed 	sw	a0,1005(t5)
  401570:	24020004 	li	v0,4
  401574:	3c040042 	lui	a0,0x42
  401578:	2484db74 	addiu	a0,a0,-9356
  40157c:	0000000c 	syscall
  401580:	3c037f7f 	lui	v1,0x7f7f
  401584:	34637f7f 	ori	v1,v1,0x7f7f
  401588:	3c020042 	lui	v0,0x42
  40158c:	2442db84 	addiu	v0,v0,-9340
  401590:	44830000 	mtc1	v1,$f0
  401594:	e4400000 	swc1	$f0,0(v0)
  401598:	8c450000 	lw	a1,0(v0)
  40159c:	14a30df6 	bne	a1,v1,404d78 <fail>
  4015a0:	00000000 	nop
  4015a4:	24020004 	li	v0,4
  4015a8:	3c040042 	lui	a0,0x42
  4015ac:	2484db8c 	addiu	a0,a0,-9332
  4015b0:	0000000c 	syscall
  4015b4:	3c037f7f 	lui	v1,0x7f7f
  4015b8:	34637f7f 	ori	v1,v1,0x7f7f
  4015bc:	3c020042 	lui	v0,0x42
  4015c0:	2442db9c 	addiu	v0,v0,-9316
  4015c4:	44830000 	mtc1	v1,$f0
  4015c8:	e4400000 	swc1	$f0,0(v0)
  4015cc:	8c450000 	lw	a1,0(v0)
  4015d0:	14a30de9 	bne	a1,v1,404d78 <fail>
  4015d4:	00000000 	nop
  4015d8:	24020004 	li	v0,4
  4015dc:	3c040042 	lui	a0,0x42
  4015e0:	2484dba4 	addiu	a0,a0,-9308
  4015e4:	0000000c 	syscall
  4015e8:	3c037f7f 	lui	v1,0x7f7f
  4015ec:	34637f7f 	ori	v1,v1,0x7f7f
  4015f0:	3c04f7f7 	lui	a0,0xf7f7
  4015f4:	3484f7f7 	ori	a0,a0,0xf7f7
  4015f8:	3c020042 	lui	v0,0x42
  4015fc:	2442dbb4 	addiu	v0,v0,-9292
  401600:	44830000 	mtc1	v1,$f0
  401604:	44840800 	mtc1	a0,$f1
  401608:	f4400000 	sdc1	$f0,0(v0)
  40160c:	8c450000 	lw	a1,0(v0)
  401610:	14a30dd9 	bne	a1,v1,404d78 <fail>
  401614:	00000000 	nop
  401618:	8c450004 	lw	a1,4(v0)
  40161c:	14a40dd6 	bne	a1,a0,404d78 <fail>
  401620:	00000000 	nop
  401624:	24020004 	li	v0,4
  401628:	3c040042 	lui	a0,0x42
  40162c:	2484dbbc 	addiu	a0,a0,-9284
  401630:	0000000c 	syscall
  401634:	3c037f7f 	lui	v1,0x7f7f
  401638:	34637f7f 	ori	v1,v1,0x7f7f
  40163c:	3c04f7f7 	lui	a0,0xf7f7
  401640:	3484f7f7 	ori	a0,a0,0xf7f7
  401644:	3c020042 	lui	v0,0x42
  401648:	2442dbcc 	addiu	v0,v0,-9268
  40164c:	44830000 	mtc1	v1,$f0
  401650:	44840800 	mtc1	a0,$f1
  401654:	f4400000 	sdc1	$f0,0(v0)
  401658:	8c450000 	lw	a1,0(v0)
  40165c:	14a30dc6 	bne	a1,v1,404d78 <fail>
  401660:	00000000 	nop
  401664:	8c450004 	lw	a1,4(v0)
  401668:	14a40dc3 	bne	a1,a0,404d78 <fail>
  40166c:	00000000 	nop
  401670:	24020004 	li	v0,4
  401674:	3c040042 	lui	a0,0x42
  401678:	2484dbd4 	addiu	a0,a0,-9260
  40167c:	0000000c 	syscall
  401680:	24020001 	li	v0,1
  401684:	00021800 	sll	v1,v0,0x0
  401688:	24010001 	li	at,1
  40168c:	14610dba 	bne	v1,at,404d78 <fail>
  401690:	00000000 	nop
  401694:	00021840 	sll	v1,v0,0x1
  401698:	24010002 	li	at,2
  40169c:	14610db6 	bne	v1,at,404d78 <fail>
  4016a0:	00000000 	nop
  4016a4:	00021c00 	sll	v1,v0,0x10
  4016a8:	3c010001 	lui	at,0x1
  4016ac:	14610db2 	bne	v1,at,404d78 <fail>
  4016b0:	00000000 	nop
  4016b4:	00021fc0 	sll	v1,v0,0x1f
  4016b8:	3c018000 	lui	at,0x8000
  4016bc:	14610dae 	bne	v1,at,404d78 <fail>
  4016c0:	00000000 	nop
  4016c4:	24020004 	li	v0,4
  4016c8:	3c040042 	lui	a0,0x42
  4016cc:	2484dbe1 	addiu	a0,a0,-9247
  4016d0:	0000000c 	syscall
  4016d4:	24020001 	li	v0,1
  4016d8:	24040000 	li	a0,0
  4016dc:	00821804 	sllv	v1,v0,a0
  4016e0:	24010001 	li	at,1
  4016e4:	14610da4 	bne	v1,at,404d78 <fail>
  4016e8:	00000000 	nop
  4016ec:	24040001 	li	a0,1
  4016f0:	00821804 	sllv	v1,v0,a0
  4016f4:	24010002 	li	at,2
  4016f8:	14610d9f 	bne	v1,at,404d78 <fail>
  4016fc:	00000000 	nop
  401700:	24040010 	li	a0,16
  401704:	00821804 	sllv	v1,v0,a0
  401708:	3c010001 	lui	at,0x1
  40170c:	14610d9a 	bne	v1,at,404d78 <fail>
  401710:	00000000 	nop
  401714:	24040020 	li	a0,32
  401718:	00821804 	sllv	v1,v0,a0
  40171c:	24010001 	li	at,1
  401720:	14610d95 	bne	v1,at,404d78 <fail>
  401724:	00000000 	nop
  401728:	24020004 	li	v0,4
  40172c:	3c040042 	lui	a0,0x42
  401730:	2484dbef 	addiu	a0,a0,-9233
  401734:	0000000c 	syscall
  401738:	0000182a 	slt	v1,zero,zero
  40173c:	14600d8e 	bnez	v1,404d78 <fail>
  401740:	00000000 	nop
  401744:	24020001 	li	v0,1
  401748:	0040182a 	slt	v1,v0,zero
  40174c:	14600d8a 	bnez	v1,404d78 <fail>
  401750:	00000000 	nop
  401754:	0002182a 	slt	v1,zero,v0
  401758:	24010001 	li	at,1
  40175c:	14610d86 	bne	v1,at,404d78 <fail>
  401760:	00000000 	nop
  401764:	2402ffff 	li	v0,-1
  401768:	0040182a 	slt	v1,v0,zero
  40176c:	24010001 	li	at,1
  401770:	14610d81 	bne	v1,at,404d78 <fail>
  401774:	00000000 	nop
  401778:	0002182a 	slt	v1,zero,v0
  40177c:	14600d7e 	bnez	v1,404d78 <fail>
  401780:	00000000 	nop
  401784:	2402ffff 	li	v0,-1
  401788:	24040001 	li	a0,1
  40178c:	0044182a 	slt	v1,v0,a0
  401790:	24010001 	li	at,1
  401794:	14610d78 	bne	v1,at,404d78 <fail>
  401798:	00000000 	nop
  40179c:	24020004 	li	v0,4
  4017a0:	3c040042 	lui	a0,0x42
  4017a4:	2484dbfc 	addiu	a0,a0,-9220
  4017a8:	0000000c 	syscall
  4017ac:	28030000 	slti	v1,zero,0
  4017b0:	14600d71 	bnez	v1,404d78 <fail>
  4017b4:	00000000 	nop
  4017b8:	24020001 	li	v0,1
  4017bc:	28430000 	slti	v1,v0,0
  4017c0:	14600d6d 	bnez	v1,404d78 <fail>
  4017c4:	00000000 	nop
  4017c8:	28030001 	slti	v1,zero,1
  4017cc:	24010001 	li	at,1
  4017d0:	14610d69 	bne	v1,at,404d78 <fail>
  4017d4:	00000000 	nop
  4017d8:	2402ffff 	li	v0,-1
  4017dc:	28430000 	slti	v1,v0,0
  4017e0:	24010001 	li	at,1
  4017e4:	14610d64 	bne	v1,at,404d78 <fail>
  4017e8:	00000000 	nop
  4017ec:	2803ffff 	slti	v1,zero,-1
  4017f0:	14600d61 	bnez	v1,404d78 <fail>
  4017f4:	00000000 	nop
  4017f8:	2402ffff 	li	v0,-1
  4017fc:	24040001 	li	a0,1
  401800:	28430001 	slti	v1,v0,1
  401804:	24010001 	li	at,1
  401808:	14610d5b 	bne	v1,at,404d78 <fail>
  40180c:	00000000 	nop
  401810:	2883ffff 	slti	v1,a0,-1
  401814:	14600d58 	bnez	v1,404d78 <fail>
  401818:	00000000 	nop
  40181c:	24020004 	li	v0,4
  401820:	3c040042 	lui	a0,0x42
  401824:	2484dc0a 	addiu	a0,a0,-9206
  401828:	0000000c 	syscall
  40182c:	2c030000 	sltiu	v1,zero,0
  401830:	14600d51 	bnez	v1,404d78 <fail>
  401834:	00000000 	nop
  401838:	24020001 	li	v0,1
  40183c:	2c430000 	sltiu	v1,v0,0
  401840:	14600d4d 	bnez	v1,404d78 <fail>
  401844:	00000000 	nop
  401848:	2c030001 	sltiu	v1,zero,1
  40184c:	24010001 	li	at,1
  401850:	14610d49 	bne	v1,at,404d78 <fail>
  401854:	00000000 	nop
  401858:	2402ffff 	li	v0,-1
  40185c:	2c430000 	sltiu	v1,v0,0
  401860:	14600d45 	bnez	v1,404d78 <fail>
  401864:	00000000 	nop
  401868:	2c03ffff 	sltiu	v1,zero,-1
  40186c:	24010001 	li	at,1
  401870:	14610d41 	bne	v1,at,404d78 <fail>
  401874:	00000000 	nop
  401878:	2402ffff 	li	v0,-1
  40187c:	24040001 	li	a0,1
  401880:	2c430001 	sltiu	v1,v0,1
  401884:	14600d3c 	bnez	v1,404d78 <fail>
  401888:	00000000 	nop
  40188c:	2c83ffff 	sltiu	v1,a0,-1
  401890:	24010001 	li	at,1
  401894:	14610d38 	bne	v1,at,404d78 <fail>
  401898:	00000000 	nop
  40189c:	24020004 	li	v0,4
  4018a0:	3c040042 	lui	a0,0x42
  4018a4:	2484dc19 	addiu	a0,a0,-9191
  4018a8:	0000000c 	syscall
  4018ac:	0000182b 	sltu	v1,zero,zero
  4018b0:	14600d31 	bnez	v1,404d78 <fail>
  4018b4:	00000000 	nop
  4018b8:	24020001 	li	v0,1
  4018bc:	0040182b 	sltu	v1,v0,zero
  4018c0:	14600d2d 	bnez	v1,404d78 <fail>
  4018c4:	00000000 	nop
  4018c8:	0002182b 	sltu	v1,zero,v0
  4018cc:	24010001 	li	at,1
  4018d0:	14610d29 	bne	v1,at,404d78 <fail>
  4018d4:	00000000 	nop
  4018d8:	2402ffff 	li	v0,-1
  4018dc:	0040182b 	sltu	v1,v0,zero
  4018e0:	14600d25 	bnez	v1,404d78 <fail>
  4018e4:	00000000 	nop
  4018e8:	0002182b 	sltu	v1,zero,v0
  4018ec:	24010001 	li	at,1
  4018f0:	14610d21 	bne	v1,at,404d78 <fail>
  4018f4:	00000000 	nop
  4018f8:	2402ffff 	li	v0,-1
  4018fc:	24040001 	li	a0,1
  401900:	0044182b 	sltu	v1,v0,a0
  401904:	14600d1c 	bnez	v1,404d78 <fail>
  401908:	00000000 	nop
  40190c:	24020004 	li	v0,4
  401910:	3c040042 	lui	a0,0x42
  401914:	2484dc27 	addiu	a0,a0,-9177
  401918:	0000000c 	syscall
  40191c:	24020001 	li	v0,1
  401920:	00021803 	sra	v1,v0,0x0
  401924:	24010001 	li	at,1
  401928:	14610d13 	bne	v1,at,404d78 <fail>
  40192c:	00000000 	nop
  401930:	00021843 	sra	v1,v0,0x1
  401934:	14600d10 	bnez	v1,404d78 <fail>
  401938:	00000000 	nop
  40193c:	24021000 	li	v0,4096
  401940:	00021903 	sra	v1,v0,0x4
  401944:	24010100 	li	at,256
  401948:	14610d0b 	bne	v1,at,404d78 <fail>
  40194c:	00000000 	nop
  401950:	3c028000 	lui	v0,0x8000
  401954:	00021903 	sra	v1,v0,0x4
  401958:	3c01f800 	lui	at,0xf800
  40195c:	14610d06 	bne	v1,at,404d78 <fail>
  401960:	00000000 	nop
  401964:	24020004 	li	v0,4
  401968:	3c040042 	lui	a0,0x42
  40196c:	2484dc34 	addiu	a0,a0,-9164
  401970:	0000000c 	syscall
  401974:	24020001 	li	v0,1
  401978:	24040000 	li	a0,0
  40197c:	00821807 	srav	v1,v0,a0
  401980:	24010001 	li	at,1
  401984:	14610cfc 	bne	v1,at,404d78 <fail>
  401988:	00000000 	nop
  40198c:	24040001 	li	a0,1
  401990:	00821807 	srav	v1,v0,a0
  401994:	14600cf8 	bnez	v1,404d78 <fail>
  401998:	00000000 	nop
  40199c:	24021000 	li	v0,4096
  4019a0:	24040004 	li	a0,4
  4019a4:	00821807 	srav	v1,v0,a0
  4019a8:	24010100 	li	at,256
  4019ac:	14610cf2 	bne	v1,at,404d78 <fail>
  4019b0:	00000000 	nop
  4019b4:	3c028000 	lui	v0,0x8000
  4019b8:	24040004 	li	a0,4
  4019bc:	00821807 	srav	v1,v0,a0
  4019c0:	3c01f800 	lui	at,0xf800
  4019c4:	14610cec 	bne	v1,at,404d78 <fail>
  4019c8:	00000000 	nop
  4019cc:	24020004 	li	v0,4
  4019d0:	3c040042 	lui	a0,0x42
  4019d4:	2484dc42 	addiu	a0,a0,-9150
  4019d8:	0000000c 	syscall
  4019dc:	24020001 	li	v0,1
  4019e0:	00021802 	srl	v1,v0,0x0
  4019e4:	24010001 	li	at,1
  4019e8:	14610ce3 	bne	v1,at,404d78 <fail>
  4019ec:	00000000 	nop
  4019f0:	00021842 	srl	v1,v0,0x1
  4019f4:	14600ce0 	bnez	v1,404d78 <fail>
  4019f8:	00000000 	nop
  4019fc:	24021000 	li	v0,4096
  401a00:	00021902 	srl	v1,v0,0x4
  401a04:	24010100 	li	at,256
  401a08:	14610cdb 	bne	v1,at,404d78 <fail>
  401a0c:	00000000 	nop
  401a10:	3c028000 	lui	v0,0x8000
  401a14:	00021902 	srl	v1,v0,0x4
  401a18:	3c010800 	lui	at,0x800
  401a1c:	14610cd6 	bne	v1,at,404d78 <fail>
  401a20:	00000000 	nop
  401a24:	24020004 	li	v0,4
  401a28:	3c040042 	lui	a0,0x42
  401a2c:	2484dc4f 	addiu	a0,a0,-9137
  401a30:	0000000c 	syscall
  401a34:	24020001 	li	v0,1
  401a38:	24040000 	li	a0,0
  401a3c:	00821806 	srlv	v1,v0,a0
  401a40:	24010001 	li	at,1
  401a44:	14610ccc 	bne	v1,at,404d78 <fail>
  401a48:	00000000 	nop
  401a4c:	24040001 	li	a0,1
  401a50:	00821806 	srlv	v1,v0,a0
  401a54:	14600cc8 	bnez	v1,404d78 <fail>
  401a58:	00000000 	nop
  401a5c:	24021000 	li	v0,4096
  401a60:	24040004 	li	a0,4
  401a64:	00821806 	srlv	v1,v0,a0
  401a68:	24010100 	li	at,256
  401a6c:	14610cc2 	bne	v1,at,404d78 <fail>
  401a70:	00000000 	nop
  401a74:	3c028000 	lui	v0,0x8000
  401a78:	24040004 	li	a0,4
  401a7c:	00821806 	srlv	v1,v0,a0
  401a80:	3c010800 	lui	at,0x800
  401a84:	14610cbc 	bne	v1,at,404d78 <fail>
  401a88:	00000000 	nop
  401a8c:	24020004 	li	v0,4
  401a90:	3c040042 	lui	a0,0x42
  401a94:	2484e5ae 	addiu	a0,a0,-6738
  401a98:	0000000c 	syscall
  401a9c:	00000040 	ssnop
  401aa0:	24020004 	li	v0,4
  401aa4:	3c040042 	lui	a0,0x42
  401aa8:	2484dc6c 	addiu	a0,a0,-9108
  401aac:	0000000c 	syscall
  401ab0:	24020001 	li	v0,1
  401ab4:	2403ffff 	li	v1,-1
  401ab8:	00002022 	neg	a0,zero
  401abc:	14800cae 	bnez	a0,404d78 <fail>
  401ac0:	00000000 	nop
  401ac4:	00022022 	neg	a0,v0
  401ac8:	2401ffff 	li	at,-1
  401acc:	14810caa 	bne	a0,at,404d78 <fail>
  401ad0:	00000000 	nop
  401ad4:	00402022 	sub	a0,v0,zero
  401ad8:	24010001 	li	at,1
  401adc:	14810ca6 	bne	a0,at,404d78 <fail>
  401ae0:	00000000 	nop
  401ae4:	00432022 	sub	a0,v0,v1
  401ae8:	24010002 	li	at,2
  401aec:	14810ca2 	bne	a0,at,404d78 <fail>
  401af0:	00000000 	nop
  401af4:	00622022 	sub	a0,v1,v0
  401af8:	2401fffe 	li	at,-2
  401afc:	14810c9e 	bne	a0,at,404d78 <fail>
  401b00:	00000000 	nop
  401b04:	24020004 	li	v0,4
  401b08:	3c040042 	lui	a0,0x42
  401b0c:	2484dc79 	addiu	a0,a0,-9095
  401b10:	0000000c 	syscall
  401b14:	3c028000 	lui	v0,0x8000
  401b18:	24030001 	li	v1,1
  401b1c:	00622022 	sub	a0,v1,v0
  401b20:	24020004 	li	v0,4
  401b24:	3c040042 	lui	a0,0x42
  401b28:	2484dc9b 	addiu	a0,a0,-9061
  401b2c:	0000000c 	syscall
  401b30:	24020001 	li	v0,1
  401b34:	2403ffff 	li	v1,-1
  401b38:	00002023 	negu	a0,zero
  401b3c:	14800c8e 	bnez	a0,404d78 <fail>
  401b40:	00000000 	nop
  401b44:	00022023 	negu	a0,v0
  401b48:	2401ffff 	li	at,-1
  401b4c:	14810c8a 	bne	a0,at,404d78 <fail>
  401b50:	00000000 	nop
  401b54:	00402023 	subu	a0,v0,zero
  401b58:	24010001 	li	at,1
  401b5c:	14810c86 	bne	a0,at,404d78 <fail>
  401b60:	00000000 	nop
  401b64:	00432023 	subu	a0,v0,v1
  401b68:	24010002 	li	at,2
  401b6c:	14810c82 	bne	a0,at,404d78 <fail>
  401b70:	00000000 	nop
  401b74:	00622023 	subu	a0,v1,v0
  401b78:	2401fffe 	li	at,-2
  401b7c:	14810c7e 	bne	a0,at,404d78 <fail>
  401b80:	00000000 	nop
  401b84:	3c028000 	lui	v0,0x8000
  401b88:	24030001 	li	v1,1
  401b8c:	00622023 	subu	a0,v1,v0
  401b90:	24020004 	li	v0,4
  401b94:	3c040042 	lui	a0,0x42
  401b98:	2484dca9 	addiu	a0,a0,-9047
  401b9c:	0000000c 	syscall
  401ba0:	3c037f7f 	lui	v1,0x7f7f
  401ba4:	34637f7f 	ori	v1,v1,0x7f7f
  401ba8:	3c020042 	lui	v0,0x42
  401bac:	2442dcdc 	addiu	v0,v0,-8996
  401bb0:	ac430000 	sw	v1,0(v0)
  401bb4:	8c440000 	lw	a0,0(v0)
  401bb8:	3c017f7f 	lui	at,0x7f7f
  401bbc:	34217f7f 	ori	at,at,0x7f7f
  401bc0:	14810c6d 	bne	a0,at,404d78 <fail>
  401bc4:	00000000 	nop
  401bc8:	24020004 	li	v0,4
  401bcc:	3c010042 	lui	at,0x42
  401bd0:	00220821 	addu	at,at,v0
  401bd4:	ac23dcdc 	sw	v1,-8996(at)
  401bd8:	3c040042 	lui	a0,0x42
  401bdc:	00822021 	addu	a0,a0,v0
  401be0:	8c84dcdc 	lw	a0,-8996(a0)
  401be4:	3c017f7f 	lui	at,0x7f7f
  401be8:	34217f7f 	ori	at,at,0x7f7f
  401bec:	14810c62 	bne	a0,at,404d78 <fail>
  401bf0:	00000000 	nop
  401bf4:	24020004 	li	v0,4
  401bf8:	3c040042 	lui	a0,0x42
  401bfc:	2484dcb5 	addiu	a0,a0,-9035
  401c00:	0000000c 	syscall
  401c04:	3c0d7fff 	lui	t5,0x7fff
  401c08:	35adffff 	ori	t5,t5,0xffff
  401c0c:	ada303e8 	sw	v1,1000(t5)
  401c10:	ada303e9 	sw	v1,1001(t5)
  401c14:	3c080040 	lui	t0,0x40
  401c18:	8d084d90 	lw	t0,19856(t0)
  401c1c:	3c010040 	lui	at,0x40
  401c20:	ac204d90 	sw	zero,19856(at)
  401c24:	3c090040 	lui	t1,0x40
  401c28:	8d294d90 	lw	t1,19856(t1)
  401c2c:	15200c52 	bnez	t1,404d78 <fail>
  401c30:	00000000 	nop
  401c34:	24020004 	li	v0,4
  401c38:	3c040042 	lui	a0,0x42
  401c3c:	2484e5ae 	addiu	a0,a0,-6738
  401c40:	0000000c 	syscall
  401c44:	0000000f 	sync
  401c48:	24020004 	li	v0,4
  401c4c:	3c040042 	lui	a0,0x42
  401c50:	2484dcee 	addiu	a0,a0,-8978
  401c54:	0000000c 	syscall
  401c58:	24020004 	li	v0,4
  401c5c:	3c040042 	lui	a0,0x42
  401c60:	2484dcff 	addiu	a0,a0,-8961
  401c64:	0000000c 	syscall
  401c68:	24020001 	li	v0,1
  401c6c:	2404ffff 	li	a0,-1
  401c70:	0000000c 	syscall
  401c74:	24020004 	li	v0,4
  401c78:	3c040042 	lui	a0,0x42
  401c7c:	2484dd37 	addiu	a0,a0,-8905
  401c80:	0000000c 	syscall
  401c84:	3c010042 	lui	at,0x42
  401c88:	c42cdd3c 	lwc1	$f12,-8900(at)
  401c8c:	24020002 	li	v0,2
  401c90:	0000000c 	syscall
  401c94:	24020004 	li	v0,4
  401c98:	3c040042 	lui	a0,0x42
  401c9c:	2484dd37 	addiu	a0,a0,-8905
  401ca0:	0000000c 	syscall
  401ca4:	3c010042 	lui	at,0x42
  401ca8:	c42cdd40 	lwc1	$f12,-8896(at)
  401cac:	3c010042 	lui	at,0x42
  401cb0:	c42ddd44 	lwc1	$f13,-8892(at)
  401cb4:	24020003 	li	v0,3
  401cb8:	0000000c 	syscall
  401cbc:	24020004 	li	v0,4
  401cc0:	3c040042 	lui	a0,0x42
  401cc4:	2484dd60 	addiu	a0,a0,-8864
  401cc8:	0000000c 	syscall
  401ccc:	24020005 	li	v0,5
  401cd0:	0000000c 	syscall
  401cd4:	24010011 	li	at,17
  401cd8:	14410c27 	bne	v0,at,404d78 <fail>
  401cdc:	00000000 	nop
  401ce0:	24020005 	li	v0,5
  401ce4:	0000000c 	syscall
  401ce8:	240106b5 	li	at,1717
  401cec:	14410c22 	bne	v0,at,404d78 <fail>
  401cf0:	00000000 	nop
  401cf4:	24020006 	li	v0,6
  401cf8:	0000000c 	syscall
  401cfc:	3c010042 	lui	at,0x42
  401d00:	c422dd48 	lwc1	$f2,-8888(at)
  401d04:	46020032 	c.eq.s	$f0,$f2
  401d08:	45000c1b 	bc1f	404d78 <fail>
  401d0c:	00000000 	nop
  401d10:	24020006 	li	v0,6
  401d14:	0000000c 	syscall
  401d18:	3c010042 	lui	at,0x42
  401d1c:	c422dd4c 	lwc1	$f2,-8884(at)
  401d20:	46020032 	c.eq.s	$f0,$f2
  401d24:	45000c14 	bc1f	404d78 <fail>
  401d28:	00000000 	nop
  401d2c:	24020007 	li	v0,7
  401d30:	0000000c 	syscall
  401d34:	3c010042 	lui	at,0x42
  401d38:	c422dd50 	lwc1	$f2,-8880(at)
  401d3c:	3c010042 	lui	at,0x42
  401d40:	c423dd54 	lwc1	$f3,-8876(at)
  401d44:	46220032 	c.eq.d	$f0,$f2
  401d48:	45000c0b 	bc1f	404d78 <fail>
  401d4c:	00000000 	nop
  401d50:	24020007 	li	v0,7
  401d54:	0000000c 	syscall
  401d58:	3c010042 	lui	at,0x42
  401d5c:	c422dd58 	lwc1	$f2,-8872(at)
  401d60:	3c010042 	lui	at,0x42
  401d64:	c423dd5c 	lwc1	$f3,-8868(at)
  401d68:	46220032 	c.eq.d	$f0,$f2
  401d6c:	45000c02 	bc1f	404d78 <fail>
  401d70:	00000000 	nop
  401d74:	24020004 	li	v0,4
  401d78:	3c040042 	lui	a0,0x42
  401d7c:	2484dd62 	addiu	a0,a0,-8862
  401d80:	0000000c 	syscall
  401d84:	24020001 	li	v0,1
  401d88:	00020034 	teq	zero,v0
  401d8c:	00000034 	teq	zero,zero
  401d90:	24020004 	li	v0,4
  401d94:	3c040042 	lui	a0,0x42
  401d98:	2484dd8f 	addiu	a0,a0,-8817
  401d9c:	0000000c 	syscall
  401da0:	040c0004 	teqi	zero,4
  401da4:	040c0000 	teqi	zero,0
  401da8:	24020004 	li	v0,4
  401dac:	3c040042 	lui	a0,0x42
  401db0:	2484ddbd 	addiu	a0,a0,-8771
  401db4:	0000000c 	syscall
  401db8:	24020001 	li	v0,1
  401dbc:	24030002 	li	v1,2
  401dc0:	00430030 	tge	v0,v1
  401dc4:	00000030 	tge	zero,zero
  401dc8:	00620030 	tge	v1,v0
  401dcc:	24020004 	li	v0,4
  401dd0:	3c040042 	lui	a0,0x42
  401dd4:	2484ddeb 	addiu	a0,a0,-8725
  401dd8:	0000000c 	syscall
  401ddc:	24020008 	li	v0,8
  401de0:	04080004 	tgei	zero,4
  401de4:	04080000 	tgei	zero,0
  401de8:	04480001 	tgei	v0,1
  401dec:	24020004 	li	v0,4
  401df0:	3c040042 	lui	a0,0x42
  401df4:	2484de1a 	addiu	a0,a0,-8678
  401df8:	0000000c 	syscall
  401dfc:	2402fffc 	li	v0,-4
  401e00:	04090004 	tgeiu	zero,4
  401e04:	04090000 	tgeiu	zero,0
  401e08:	04490001 	tgeiu	v0,1
  401e0c:	24020004 	li	v0,4
  401e10:	3c040042 	lui	a0,0x42
  401e14:	2484de4a 	addiu	a0,a0,-8630
  401e18:	0000000c 	syscall
  401e1c:	24020001 	li	v0,1
  401e20:	2403fffc 	li	v1,-4
  401e24:	00430031 	tgeu	v0,v1
  401e28:	00000031 	tgeu	zero,zero
  401e2c:	00620031 	tgeu	v1,v0
  401e30:	24020004 	li	v0,4
  401e34:	3c040042 	lui	a0,0x42
  401e38:	2484de79 	addiu	a0,a0,-8583
  401e3c:	0000000c 	syscall
  401e40:	42000008 	tlbp
  401e44:	42000001 	tlbr
  401e48:	42000002 	tlbwi
  401e4c:	42000001 	tlbr
  401e50:	24020004 	li	v0,4
  401e54:	3c040042 	lui	a0,0x42
  401e58:	2484de94 	addiu	a0,a0,-8556
  401e5c:	0000000c 	syscall
  401e60:	24020001 	li	v0,1
  401e64:	24030002 	li	v1,2
  401e68:	00430032 	tlt	v0,v1
  401e6c:	00000032 	tlt	zero,zero
  401e70:	00620032 	tlt	v1,v0
  401e74:	24020004 	li	v0,4
  401e78:	3c040042 	lui	a0,0x42
  401e7c:	2484dec1 	addiu	a0,a0,-8511
  401e80:	0000000c 	syscall
  401e84:	24020008 	li	v0,8
  401e88:	040a0004 	tlti	zero,4
  401e8c:	040a0000 	tlti	zero,0
  401e90:	044a0001 	tlti	v0,1
  401e94:	24020004 	li	v0,4
  401e98:	3c040042 	lui	a0,0x42
  401e9c:	2484deef 	addiu	a0,a0,-8465
  401ea0:	0000000c 	syscall
  401ea4:	2402fffc 	li	v0,-4
  401ea8:	040b0004 	tltiu	zero,4
  401eac:	040b0000 	tltiu	zero,0
  401eb0:	044b0001 	tltiu	v0,1
  401eb4:	24020004 	li	v0,4
  401eb8:	3c040042 	lui	a0,0x42
  401ebc:	2484df1e 	addiu	a0,a0,-8418
  401ec0:	0000000c 	syscall
  401ec4:	24020001 	li	v0,1
  401ec8:	2403fffc 	li	v1,-4
  401ecc:	00430033 	tltu	v0,v1
  401ed0:	00000033 	tltu	zero,zero
  401ed4:	00620033 	tltu	v1,v0
  401ed8:	24020004 	li	v0,4
  401edc:	3c040042 	lui	a0,0x42
  401ee0:	2484df4c 	addiu	a0,a0,-8372
  401ee4:	0000000c 	syscall
  401ee8:	24020001 	li	v0,1
  401eec:	00020036 	tne	zero,v0
  401ef0:	00000036 	tne	zero,zero
  401ef4:	24020004 	li	v0,4
  401ef8:	3c040042 	lui	a0,0x42
  401efc:	2484df79 	addiu	a0,a0,-8327
  401f00:	0000000c 	syscall
  401f04:	040e0004 	tnei	zero,4
  401f08:	040e0000 	tnei	zero,0
  401f0c:	24020004 	li	v0,4
  401f10:	3c040042 	lui	a0,0x42
  401f14:	2484dfa7 	addiu	a0,a0,-8281
  401f18:	0000000c 	syscall
  401f1c:	24020001 	li	v0,1
  401f20:	2403ffff 	li	v1,-1
  401f24:	00002026 	xor	a0,zero,zero
  401f28:	14800b93 	bnez	a0,404d78 <fail>
  401f2c:	00000000 	nop
  401f30:	00632026 	xor	a0,v1,v1
  401f34:	14800b90 	bnez	a0,404d78 <fail>
  401f38:	00000000 	nop
  401f3c:	00432026 	xor	a0,v0,v1
  401f40:	2401fffe 	li	at,-2
  401f44:	14810b8c 	bne	a0,at,404d78 <fail>
  401f48:	00000000 	nop
  401f4c:	24020004 	li	v0,4
  401f50:	3c040042 	lui	a0,0x42
  401f54:	2484dfb4 	addiu	a0,a0,-8268
  401f58:	0000000c 	syscall
  401f5c:	24020001 	li	v0,1
  401f60:	2403ffff 	li	v1,-1
  401f64:	38040000 	xori	a0,zero,0x0
  401f68:	14800b83 	bnez	a0,404d78 <fail>
  401f6c:	00000000 	nop
  401f70:	3864ffff 	xori	a0,v1,0xffff
  401f74:	3c01ffff 	lui	at,0xffff
  401f78:	14810b7f 	bne	a0,at,404d78 <fail>
  401f7c:	00000000 	nop
  401f80:	3844ffff 	xori	a0,v0,0xffff
  401f84:	3401fffe 	li	at,0xfffe
  401f88:	14810b7b 	bne	a0,at,404d78 <fail>
  401f8c:	00000000 	nop
  401f90:	24020004 	li	v0,4
  401f94:	3c040042 	lui	a0,0x42
  401f98:	2484dfc2 	addiu	a0,a0,-8254
  401f9c:	0000000c 	syscall
  401fa0:	3c040042 	lui	a0,0x42
  401fa4:	8c84dfd4 	lw	a0,-8236(a0)
  401fa8:	3c010042 	lui	at,0x42
  401fac:	c420dfd4 	lwc1	$f0,-8236(at)
  401fb0:	46000085 	abs.s	$f2,$f0
  401fb4:	44051000 	mfc1	a1,$f2
  401fb8:	14850b6f 	bne	a0,a1,404d78 <fail>
  401fbc:	00000000 	nop
  401fc0:	3c010042 	lui	at,0x42
  401fc4:	c420dfd8 	lwc1	$f0,-8232(at)
  401fc8:	46000085 	abs.s	$f2,$f0
  401fcc:	44051000 	mfc1	a1,$f2
  401fd0:	14850b69 	bne	a0,a1,404d78 <fail>
  401fd4:	00000000 	nop
  401fd8:	24020004 	li	v0,4
  401fdc:	3c040042 	lui	a0,0x42
  401fe0:	2484dfdc 	addiu	a0,a0,-8228
  401fe4:	0000000c 	syscall
  401fe8:	3c040042 	lui	a0,0x42
  401fec:	8c84dff0 	lw	a0,-8208(a0)
  401ff0:	3c050042 	lui	a1,0x42
  401ff4:	8ca5dff4 	lw	a1,-8204(a1)
  401ff8:	3c010042 	lui	at,0x42
  401ffc:	c420dff0 	lwc1	$f0,-8208(at)
  402000:	3c010042 	lui	at,0x42
  402004:	c421dff4 	lwc1	$f1,-8204(at)
  402008:	46200085 	abs.d	$f2,$f0
  40200c:	44061000 	mfc1	a2,$f2
  402010:	44071800 	mfc1	a3,$f3
  402014:	14860b58 	bne	a0,a2,404d78 <fail>
  402018:	00000000 	nop
  40201c:	14a70b56 	bne	a1,a3,404d78 <fail>
  402020:	00000000 	nop
  402024:	3c010042 	lui	at,0x42
  402028:	c420dff8 	lwc1	$f0,-8200(at)
  40202c:	3c010042 	lui	at,0x42
  402030:	c421dffc 	lwc1	$f1,-8196(at)
  402034:	46200085 	abs.d	$f2,$f0
  402038:	44061000 	mfc1	a2,$f2
  40203c:	44071800 	mfc1	a3,$f3
  402040:	14860b4d 	bne	a0,a2,404d78 <fail>
  402044:	00000000 	nop
  402048:	14a70b4b 	bne	a1,a3,404d78 <fail>
  40204c:	00000000 	nop
  402050:	24020004 	li	v0,4
  402054:	3c040042 	lui	a0,0x42
  402058:	2484e000 	addiu	a0,a0,-8192
  40205c:	0000000c 	syscall
  402060:	3c040042 	lui	a0,0x42
  402064:	8c84e010 	lw	a0,-8176(a0)
  402068:	3c010042 	lui	at,0x42
  40206c:	c420e010 	lwc1	$f0,-8176(at)
  402070:	46000080 	add.s	$f2,$f0,$f0
  402074:	44061000 	mfc1	a2,$f2
  402078:	14860b3f 	bne	a0,a2,404d78 <fail>
  40207c:	00000000 	nop
  402080:	3c040042 	lui	a0,0x42
  402084:	8c84e014 	lw	a0,-8172(a0)
  402088:	3c010042 	lui	at,0x42
  40208c:	c420e010 	lwc1	$f0,-8176(at)
  402090:	3c010042 	lui	at,0x42
  402094:	c422e014 	lwc1	$f2,-8172(at)
  402098:	46020100 	add.s	$f4,$f0,$f2
  40209c:	44062000 	mfc1	a2,$f4
  4020a0:	14860b35 	bne	a0,a2,404d78 <fail>
  4020a4:	00000000 	nop
  4020a8:	3c040042 	lui	a0,0x42
  4020ac:	8c84e010 	lw	a0,-8176(a0)
  4020b0:	3c010042 	lui	at,0x42
  4020b4:	c420e014 	lwc1	$f0,-8172(at)
  4020b8:	3c010042 	lui	at,0x42
  4020bc:	c422dd3c 	lwc1	$f2,-8900(at)
  4020c0:	46020100 	add.s	$f4,$f0,$f2
  4020c4:	44062000 	mfc1	a2,$f4
  4020c8:	14860b2b 	bne	a0,a2,404d78 <fail>
  4020cc:	00000000 	nop
  4020d0:	24020004 	li	v0,4
  4020d4:	3c040042 	lui	a0,0x42
  4020d8:	2484e018 	addiu	a0,a0,-8168
  4020dc:	0000000c 	syscall
  4020e0:	3c040042 	lui	a0,0x42
  4020e4:	8c84e028 	lw	a0,-8152(a0)
  4020e8:	3c050042 	lui	a1,0x42
  4020ec:	8ca5e02c 	lw	a1,-8148(a1)
  4020f0:	3c010042 	lui	at,0x42
  4020f4:	c420e028 	lwc1	$f0,-8152(at)
  4020f8:	3c010042 	lui	at,0x42
  4020fc:	c421e02c 	lwc1	$f1,-8148(at)
  402100:	46200080 	add.d	$f2,$f0,$f0
  402104:	44061000 	mfc1	a2,$f2
  402108:	44071800 	mfc1	a3,$f3
  40210c:	14860b1a 	bne	a0,a2,404d78 <fail>
  402110:	00000000 	nop
  402114:	14a70b18 	bne	a1,a3,404d78 <fail>
  402118:	00000000 	nop
  40211c:	3c040042 	lui	a0,0x42
  402120:	8c84e030 	lw	a0,-8144(a0)
  402124:	3c050042 	lui	a1,0x42
  402128:	8ca5e034 	lw	a1,-8140(a1)
  40212c:	3c010042 	lui	at,0x42
  402130:	c420e028 	lwc1	$f0,-8152(at)
  402134:	3c010042 	lui	at,0x42
  402138:	c421e02c 	lwc1	$f1,-8148(at)
  40213c:	3c010042 	lui	at,0x42
  402140:	c422e030 	lwc1	$f2,-8144(at)
  402144:	3c010042 	lui	at,0x42
  402148:	c423e034 	lwc1	$f3,-8140(at)
  40214c:	46220100 	add.d	$f4,$f0,$f2
  402150:	44062000 	mfc1	a2,$f4
  402154:	44072800 	mfc1	a3,$f5
  402158:	14860b07 	bne	a0,a2,404d78 <fail>
  40215c:	00000000 	nop
  402160:	14a70b05 	bne	a1,a3,404d78 <fail>
  402164:	00000000 	nop
  402168:	3c040042 	lui	a0,0x42
  40216c:	8c84e028 	lw	a0,-8152(a0)
  402170:	3c050042 	lui	a1,0x42
  402174:	8ca5e02c 	lw	a1,-8148(a1)
  402178:	3c010042 	lui	at,0x42
  40217c:	c420e030 	lwc1	$f0,-8144(at)
  402180:	3c010042 	lui	at,0x42
  402184:	c421e034 	lwc1	$f1,-8140(at)
  402188:	3c010042 	lui	at,0x42
  40218c:	c422e038 	lwc1	$f2,-8136(at)
  402190:	3c010042 	lui	at,0x42
  402194:	c423e03c 	lwc1	$f3,-8132(at)
  402198:	46220100 	add.d	$f4,$f0,$f2
  40219c:	44062000 	mfc1	a2,$f4
  4021a0:	44072800 	mfc1	a3,$f5
  4021a4:	14860af4 	bne	a0,a2,404d78 <fail>
  4021a8:	00000000 	nop
  4021ac:	14a70af2 	bne	a1,a3,404d78 <fail>
  4021b0:	00000000 	nop
  4021b4:	24020004 	li	v0,4
  4021b8:	3c040042 	lui	a0,0x42
  4021bc:	2484e040 	addiu	a0,a0,-8128
  4021c0:	0000000c 	syscall
  4021c4:	3c010042 	lui	at,0x42
  4021c8:	c420e014 	lwc1	$f0,-8172(at)
  4021cc:	3c010042 	lui	at,0x42
  4021d0:	c422e014 	lwc1	$f2,-8172(at)
  4021d4:	3c010042 	lui	at,0x42
  4021d8:	c424e2d0 	lwc1	$f4,-7472(at)
  4021dc:	46020032 	c.eq.s	$f0,$f2
  4021e0:	45000ae5 	bc1f	404d78 <fail>
  4021e4:	00000000 	nop
  4021e8:	45010003 	bc1t	4021f8 <l205>
  4021ec:	00000000 	nop
  4021f0:	0810135e 	j	404d78 <fail>
  4021f4:	00000000 	nop

004021f8 <l205>:
  4021f8:	46040032 	c.eq.s	$f0,$f4
  4021fc:	45010ade 	bc1t	404d78 <fail>
  402200:	00000000 	nop
  402204:	45000003 	bc1f	402214 <l206>
  402208:	00000000 	nop
  40220c:	0810135e 	j	404d78 <fail>
  402210:	00000000 	nop

00402214 <l206>:
  402214:	24020004 	li	v0,4
  402218:	3c040042 	lui	a0,0x42
  40221c:	2484e057 	addiu	a0,a0,-8105
  402220:	0000000c 	syscall
  402224:	3c010042 	lui	at,0x42
  402228:	c420e030 	lwc1	$f0,-8144(at)
  40222c:	3c010042 	lui	at,0x42
  402230:	c421e034 	lwc1	$f1,-8140(at)
  402234:	3c010042 	lui	at,0x42
  402238:	c422e030 	lwc1	$f2,-8144(at)
  40223c:	3c010042 	lui	at,0x42
  402240:	c423e034 	lwc1	$f3,-8140(at)
  402244:	3c010042 	lui	at,0x42
  402248:	c424e2f8 	lwc1	$f4,-7432(at)
  40224c:	3c010042 	lui	at,0x42
  402250:	c425e2fc 	lwc1	$f5,-7428(at)
  402254:	46220032 	c.eq.d	$f0,$f2
  402258:	45000ac7 	bc1f	404d78 <fail>
  40225c:	00000000 	nop
  402260:	45010003 	bc1t	402270 <l200>
  402264:	00000000 	nop
  402268:	0810135e 	j	404d78 <fail>
  40226c:	00000000 	nop

00402270 <l200>:
  402270:	46240032 	c.eq.d	$f0,$f4
  402274:	45010ac0 	bc1t	404d78 <fail>
  402278:	00000000 	nop
  40227c:	45000003 	bc1f	40228c <l201>
  402280:	00000000 	nop
  402284:	0810135e 	j	404d78 <fail>
  402288:	00000000 	nop

0040228c <l201>:
  40228c:	24020004 	li	v0,4
  402290:	3c040042 	lui	a0,0x42
  402294:	2484e067 	addiu	a0,a0,-8089
  402298:	0000000c 	syscall
  40229c:	3c010042 	lui	at,0x42
  4022a0:	c420e014 	lwc1	$f0,-8172(at)
  4022a4:	3c010042 	lui	at,0x42
  4022a8:	c422e014 	lwc1	$f2,-8172(at)
  4022ac:	3c010042 	lui	at,0x42
  4022b0:	c424e2d0 	lwc1	$f4,-7472(at)
  4022b4:	46020032 	c.eq.s	$f0,$f2
  4022b8:	45000aaf 	bc1f	404d78 <fail>
  4022bc:	00000000 	nop
  4022c0:	45010003 	bc1t	4022d0 <l210>
  4022c4:	00000000 	nop
  4022c8:	0810135e 	j	404d78 <fail>
  4022cc:	00000000 	nop

004022d0 <l210>:
  4022d0:	46040032 	c.eq.s	$f0,$f4
  4022d4:	45010aa8 	bc1t	404d78 <fail>
  4022d8:	00000000 	nop
  4022dc:	45000003 	bc1f	4022ec <l211>
  4022e0:	00000000 	nop
  4022e4:	0810135e 	j	404d78 <fail>
  4022e8:	00000000 	nop

004022ec <l211>:
  4022ec:	24020004 	li	v0,4
  4022f0:	3c040042 	lui	a0,0x42
  4022f4:	2484e077 	addiu	a0,a0,-8073
  4022f8:	0000000c 	syscall
  4022fc:	3c010042 	lui	at,0x42
  402300:	c420e030 	lwc1	$f0,-8144(at)
  402304:	3c010042 	lui	at,0x42
  402308:	c421e034 	lwc1	$f1,-8140(at)
  40230c:	3c010042 	lui	at,0x42
  402310:	c422e030 	lwc1	$f2,-8144(at)
  402314:	3c010042 	lui	at,0x42
  402318:	c423e034 	lwc1	$f3,-8140(at)
  40231c:	3c010042 	lui	at,0x42
  402320:	c424e2f8 	lwc1	$f4,-7432(at)
  402324:	3c010042 	lui	at,0x42
  402328:	c425e2fc 	lwc1	$f5,-7428(at)
  40232c:	46220030 	c.f.d	$f0,$f2
  402330:	45010a91 	bc1t	404d78 <fail>
  402334:	00000000 	nop
  402338:	45000003 	bc1f	402348 <l220>
  40233c:	00000000 	nop
  402340:	0810135e 	j	404d78 <fail>
  402344:	00000000 	nop

00402348 <l220>:
  402348:	46240030 	c.f.d	$f0,$f4
  40234c:	45010a8a 	bc1t	404d78 <fail>
  402350:	00000000 	nop
  402354:	45000003 	bc1f	402364 <l221>
  402358:	00000000 	nop
  40235c:	0810135e 	j	404d78 <fail>
  402360:	00000000 	nop

00402364 <l221>:
  402364:	24020004 	li	v0,4
  402368:	3c040042 	lui	a0,0x42
  40236c:	2484e086 	addiu	a0,a0,-8058
  402370:	0000000c 	syscall
  402374:	3c010042 	lui	at,0x42
  402378:	c420e014 	lwc1	$f0,-8172(at)
  40237c:	3c010042 	lui	at,0x42
  402380:	c422e014 	lwc1	$f2,-8172(at)
  402384:	3c010042 	lui	at,0x42
  402388:	c424e2d0 	lwc1	$f4,-7472(at)
  40238c:	46020030 	c.f.s	$f0,$f2
  402390:	45010a79 	bc1t	404d78 <fail>
  402394:	00000000 	nop
  402398:	45000003 	bc1f	4023a8 <l230>
  40239c:	00000000 	nop
  4023a0:	0810135e 	j	404d78 <fail>
  4023a4:	00000000 	nop

004023a8 <l230>:
  4023a8:	46040030 	c.f.s	$f0,$f4
  4023ac:	45010a72 	bc1t	404d78 <fail>
  4023b0:	00000000 	nop
  4023b4:	45000003 	bc1f	4023c4 <l231>
  4023b8:	00000000 	nop
  4023bc:	0810135e 	j	404d78 <fail>
  4023c0:	00000000 	nop

004023c4 <l231>:
  4023c4:	24020004 	li	v0,4
  4023c8:	3c040042 	lui	a0,0x42
  4023cc:	2484e095 	addiu	a0,a0,-8043
  4023d0:	0000000c 	syscall
  4023d4:	3c010042 	lui	at,0x42
  4023d8:	c420e030 	lwc1	$f0,-8144(at)
  4023dc:	3c010042 	lui	at,0x42
  4023e0:	c421e034 	lwc1	$f1,-8140(at)
  4023e4:	3c010042 	lui	at,0x42
  4023e8:	c422e2f8 	lwc1	$f2,-7432(at)
  4023ec:	3c010042 	lui	at,0x42
  4023f0:	c423e2fc 	lwc1	$f3,-7428(at)
  4023f4:	3c010042 	lui	at,0x42
  4023f8:	c424dd40 	lwc1	$f4,-8896(at)
  4023fc:	3c010042 	lui	at,0x42
  402400:	c425dd44 	lwc1	$f5,-8892(at)
  402404:	4622003e 	c.le.d	$f0,$f2
  402408:	45000a5b 	bc1f	404d78 <fail>
  40240c:	00000000 	nop
  402410:	45010003 	bc1t	402420 <l240>
  402414:	00000000 	nop
  402418:	0810135e 	j	404d78 <fail>
  40241c:	00000000 	nop

00402420 <l240>:
  402420:	4620103e 	c.le.d	$f2,$f0
  402424:	45010a54 	bc1t	404d78 <fail>
  402428:	00000000 	nop
  40242c:	45000003 	bc1f	40243c <l241>
  402430:	00000000 	nop
  402434:	0810135e 	j	404d78 <fail>
  402438:	00000000 	nop

0040243c <l241>:
  40243c:	4620003e 	c.le.d	$f0,$f0
  402440:	45000a4d 	bc1f	404d78 <fail>
  402444:	00000000 	nop
  402448:	45010003 	bc1t	402458 <l242>
  40244c:	00000000 	nop
  402450:	0810135e 	j	404d78 <fail>
  402454:	00000000 	nop

00402458 <l242>:
  402458:	4620203e 	c.le.d	$f4,$f0
  40245c:	45000a46 	bc1f	404d78 <fail>
  402460:	00000000 	nop
  402464:	45010003 	bc1t	402474 <l243>
  402468:	00000000 	nop
  40246c:	0810135e 	j	404d78 <fail>
  402470:	00000000 	nop

00402474 <l243>:
  402474:	24020004 	li	v0,4
  402478:	3c040042 	lui	a0,0x42
  40247c:	2484e0a5 	addiu	a0,a0,-8027
  402480:	0000000c 	syscall
  402484:	3c010042 	lui	at,0x42
  402488:	c420e014 	lwc1	$f0,-8172(at)
  40248c:	3c010042 	lui	at,0x42
  402490:	c422e2d0 	lwc1	$f2,-7472(at)
  402494:	3c010042 	lui	at,0x42
  402498:	c424e0b8 	lwc1	$f4,-8008(at)
  40249c:	4602003e 	c.le.s	$f0,$f2
  4024a0:	45000a35 	bc1f	404d78 <fail>
  4024a4:	00000000 	nop
  4024a8:	45010003 	bc1t	4024b8 <l250>
  4024ac:	00000000 	nop
  4024b0:	0810135e 	j	404d78 <fail>
  4024b4:	00000000 	nop

004024b8 <l250>:
  4024b8:	4600103e 	c.le.s	$f2,$f0
  4024bc:	45010a2e 	bc1t	404d78 <fail>
  4024c0:	00000000 	nop
  4024c4:	45000003 	bc1f	4024d4 <l251>
  4024c8:	00000000 	nop
  4024cc:	0810135e 	j	404d78 <fail>
  4024d0:	00000000 	nop

004024d4 <l251>:
  4024d4:	4600003e 	c.le.s	$f0,$f0
  4024d8:	45000a27 	bc1f	404d78 <fail>
  4024dc:	00000000 	nop
  4024e0:	45010003 	bc1t	4024f0 <l252>
  4024e4:	00000000 	nop
  4024e8:	0810135e 	j	404d78 <fail>
  4024ec:	00000000 	nop

004024f0 <l252>:
  4024f0:	4600203e 	c.le.s	$f4,$f0
  4024f4:	45000a20 	bc1f	404d78 <fail>
  4024f8:	00000000 	nop
  4024fc:	45010003 	bc1t	40250c <l253>
  402500:	00000000 	nop
  402504:	0810135e 	j	404d78 <fail>
  402508:	00000000 	nop

0040250c <l253>:
  40250c:	24020004 	li	v0,4
  402510:	3c040042 	lui	a0,0x42
  402514:	2484e0bc 	addiu	a0,a0,-8004
  402518:	0000000c 	syscall
  40251c:	3c010042 	lui	at,0x42
  402520:	c420e030 	lwc1	$f0,-8144(at)
  402524:	3c010042 	lui	at,0x42
  402528:	c421e034 	lwc1	$f1,-8140(at)
  40252c:	3c010042 	lui	at,0x42
  402530:	c422e2f8 	lwc1	$f2,-7432(at)
  402534:	3c010042 	lui	at,0x42
  402538:	c423e2fc 	lwc1	$f3,-7428(at)
  40253c:	3c010042 	lui	at,0x42
  402540:	c424dd40 	lwc1	$f4,-8896(at)
  402544:	3c010042 	lui	at,0x42
  402548:	c425dd44 	lwc1	$f5,-8892(at)
  40254c:	4622003c 	c.lt.d	$f0,$f2
  402550:	45000a09 	bc1f	404d78 <fail>
  402554:	00000000 	nop
  402558:	45010003 	bc1t	402568 <l260>
  40255c:	00000000 	nop
  402560:	0810135e 	j	404d78 <fail>
  402564:	00000000 	nop

00402568 <l260>:
  402568:	4620103c 	c.lt.d	$f2,$f0
  40256c:	45010a02 	bc1t	404d78 <fail>
  402570:	00000000 	nop
  402574:	45000003 	bc1f	402584 <l261>
  402578:	00000000 	nop
  40257c:	0810135e 	j	404d78 <fail>
  402580:	00000000 	nop

00402584 <l261>:
  402584:	4620003c 	c.lt.d	$f0,$f0
  402588:	450109fb 	bc1t	404d78 <fail>
  40258c:	00000000 	nop
  402590:	45000003 	bc1f	4025a0 <l262>
  402594:	00000000 	nop
  402598:	0810135e 	j	404d78 <fail>
  40259c:	00000000 	nop

004025a0 <l262>:
  4025a0:	4620203c 	c.lt.d	$f4,$f0
  4025a4:	450009f4 	bc1f	404d78 <fail>
  4025a8:	00000000 	nop
  4025ac:	45010003 	bc1t	4025bc <l263>
  4025b0:	00000000 	nop
  4025b4:	0810135e 	j	404d78 <fail>
  4025b8:	00000000 	nop

004025bc <l263>:
  4025bc:	24020004 	li	v0,4
  4025c0:	3c040042 	lui	a0,0x42
  4025c4:	2484e0cc 	addiu	a0,a0,-7988
  4025c8:	0000000c 	syscall
  4025cc:	3c010042 	lui	at,0x42
  4025d0:	c420e014 	lwc1	$f0,-8172(at)
  4025d4:	3c010042 	lui	at,0x42
  4025d8:	c422e2d0 	lwc1	$f2,-7472(at)
  4025dc:	3c010042 	lui	at,0x42
  4025e0:	c424e0b8 	lwc1	$f4,-8008(at)
  4025e4:	4602003c 	c.lt.s	$f0,$f2
  4025e8:	450009e3 	bc1f	404d78 <fail>
  4025ec:	00000000 	nop
  4025f0:	45010003 	bc1t	402600 <l270>
  4025f4:	00000000 	nop
  4025f8:	0810135e 	j	404d78 <fail>
  4025fc:	00000000 	nop

00402600 <l270>:
  402600:	4600103c 	c.lt.s	$f2,$f0
  402604:	450109dc 	bc1t	404d78 <fail>
  402608:	00000000 	nop
  40260c:	45000003 	bc1f	40261c <l271>
  402610:	00000000 	nop
  402614:	0810135e 	j	404d78 <fail>
  402618:	00000000 	nop

0040261c <l271>:
  40261c:	4600003c 	c.lt.s	$f0,$f0
  402620:	450109d5 	bc1t	404d78 <fail>
  402624:	00000000 	nop
  402628:	45000003 	bc1f	402638 <l272>
  40262c:	00000000 	nop
  402630:	0810135e 	j	404d78 <fail>
  402634:	00000000 	nop

00402638 <l272>:
  402638:	4600203c 	c.lt.s	$f4,$f0
  40263c:	450009ce 	bc1f	404d78 <fail>
  402640:	00000000 	nop
  402644:	45010003 	bc1t	402654 <l273>
  402648:	00000000 	nop
  40264c:	0810135e 	j	404d78 <fail>
  402650:	00000000 	nop

00402654 <l273>:
  402654:	24020004 	li	v0,4
  402658:	3c040042 	lui	a0,0x42
  40265c:	2484e0dc 	addiu	a0,a0,-7972
  402660:	0000000c 	syscall
  402664:	3c010042 	lui	at,0x42
  402668:	c420e030 	lwc1	$f0,-8144(at)
  40266c:	3c010042 	lui	at,0x42
  402670:	c421e034 	lwc1	$f1,-8140(at)
  402674:	3c010042 	lui	at,0x42
  402678:	c422e2f8 	lwc1	$f2,-7432(at)
  40267c:	3c010042 	lui	at,0x42
  402680:	c423e2fc 	lwc1	$f3,-7428(at)
  402684:	3c010042 	lui	at,0x42
  402688:	c424dd40 	lwc1	$f4,-8896(at)
  40268c:	3c010042 	lui	at,0x42
  402690:	c425dd44 	lwc1	$f5,-8892(at)
  402694:	4622003d 	c.nge.d	$f0,$f2
  402698:	450009b7 	bc1f	404d78 <fail>
  40269c:	00000000 	nop
  4026a0:	45010003 	bc1t	4026b0 <l280>
  4026a4:	00000000 	nop
  4026a8:	0810135e 	j	404d78 <fail>
  4026ac:	00000000 	nop

004026b0 <l280>:
  4026b0:	4620103d 	c.nge.d	$f2,$f0
  4026b4:	450109b0 	bc1t	404d78 <fail>
  4026b8:	00000000 	nop
  4026bc:	45000003 	bc1f	4026cc <l281>
  4026c0:	00000000 	nop
  4026c4:	0810135e 	j	404d78 <fail>
  4026c8:	00000000 	nop

004026cc <l281>:
  4026cc:	4620003d 	c.nge.d	$f0,$f0
  4026d0:	450109a9 	bc1t	404d78 <fail>
  4026d4:	00000000 	nop
  4026d8:	45000003 	bc1f	4026e8 <l282>
  4026dc:	00000000 	nop
  4026e0:	0810135e 	j	404d78 <fail>
  4026e4:	00000000 	nop

004026e8 <l282>:
  4026e8:	4620203d 	c.nge.d	$f4,$f0
  4026ec:	450009a2 	bc1f	404d78 <fail>
  4026f0:	00000000 	nop
  4026f4:	45010003 	bc1t	402704 <l283>
  4026f8:	00000000 	nop
  4026fc:	0810135e 	j	404d78 <fail>
  402700:	00000000 	nop

00402704 <l283>:
  402704:	24020004 	li	v0,4
  402708:	3c040042 	lui	a0,0x42
  40270c:	2484e0ed 	addiu	a0,a0,-7955
  402710:	0000000c 	syscall
  402714:	3c010042 	lui	at,0x42
  402718:	c420e014 	lwc1	$f0,-8172(at)
  40271c:	3c010042 	lui	at,0x42
  402720:	c422e2d0 	lwc1	$f2,-7472(at)
  402724:	3c010042 	lui	at,0x42
  402728:	c424e0b8 	lwc1	$f4,-8008(at)
  40272c:	4602003d 	c.nge.s	$f0,$f2
  402730:	45000991 	bc1f	404d78 <fail>
  402734:	00000000 	nop
  402738:	45010003 	bc1t	402748 <l290>
  40273c:	00000000 	nop
  402740:	0810135e 	j	404d78 <fail>
  402744:	00000000 	nop

00402748 <l290>:
  402748:	4600103d 	c.nge.s	$f2,$f0
  40274c:	4501098a 	bc1t	404d78 <fail>
  402750:	00000000 	nop
  402754:	45000003 	bc1f	402764 <l291>
  402758:	00000000 	nop
  40275c:	0810135e 	j	404d78 <fail>
  402760:	00000000 	nop

00402764 <l291>:
  402764:	4600003d 	c.nge.s	$f0,$f0
  402768:	45010983 	bc1t	404d78 <fail>
  40276c:	00000000 	nop
  402770:	45000003 	bc1f	402780 <l292>
  402774:	00000000 	nop
  402778:	0810135e 	j	404d78 <fail>
  40277c:	00000000 	nop

00402780 <l292>:
  402780:	4600203d 	c.nge.s	$f4,$f0
  402784:	4500097c 	bc1f	404d78 <fail>
  402788:	00000000 	nop
  40278c:	45010003 	bc1t	40279c <l293>
  402790:	00000000 	nop
  402794:	0810135e 	j	404d78 <fail>
  402798:	00000000 	nop

0040279c <l293>:
  40279c:	24020004 	li	v0,4
  4027a0:	3c040042 	lui	a0,0x42
  4027a4:	2484e0fe 	addiu	a0,a0,-7938
  4027a8:	0000000c 	syscall
  4027ac:	3c010042 	lui	at,0x42
  4027b0:	c420e030 	lwc1	$f0,-8144(at)
  4027b4:	3c010042 	lui	at,0x42
  4027b8:	c421e034 	lwc1	$f1,-8140(at)
  4027bc:	3c010042 	lui	at,0x42
  4027c0:	c422e030 	lwc1	$f2,-8144(at)
  4027c4:	3c010042 	lui	at,0x42
  4027c8:	c423e034 	lwc1	$f3,-8140(at)
  4027cc:	3c010042 	lui	at,0x42
  4027d0:	c424e2f8 	lwc1	$f4,-7432(at)
  4027d4:	3c010042 	lui	at,0x42
  4027d8:	c425e2fc 	lwc1	$f5,-7428(at)
  4027dc:	46220039 	c.ngle.d	$f0,$f2
  4027e0:	45010965 	bc1t	404d78 <fail>
  4027e4:	00000000 	nop

004027e8 <l300>:
  4027e8:	46240039 	c.ngle.d	$f0,$f4
  4027ec:	45010962 	bc1t	404d78 <fail>
  4027f0:	00000000 	nop

004027f4 <l301>:
  4027f4:	24020004 	li	v0,4
  4027f8:	3c040042 	lui	a0,0x42
  4027fc:	2484e110 	addiu	a0,a0,-7920
  402800:	0000000c 	syscall
  402804:	3c010042 	lui	at,0x42
  402808:	c420e014 	lwc1	$f0,-8172(at)
  40280c:	3c010042 	lui	at,0x42
  402810:	c422e014 	lwc1	$f2,-8172(at)
  402814:	3c010042 	lui	at,0x42
  402818:	c424e2d0 	lwc1	$f4,-7472(at)
  40281c:	46020039 	c.ngle.s	$f0,$f2
  402820:	45010955 	bc1t	404d78 <fail>
  402824:	00000000 	nop

00402828 <l310>:
  402828:	46040039 	c.ngle.s	$f0,$f4
  40282c:	45010952 	bc1t	404d78 <fail>
  402830:	00000000 	nop

00402834 <l311>:
  402834:	24020004 	li	v0,4
  402838:	3c040042 	lui	a0,0x42
  40283c:	2484e122 	addiu	a0,a0,-7902
  402840:	0000000c 	syscall
  402844:	3c010042 	lui	at,0x42
  402848:	c420e030 	lwc1	$f0,-8144(at)
  40284c:	3c010042 	lui	at,0x42
  402850:	c421e034 	lwc1	$f1,-8140(at)
  402854:	3c010042 	lui	at,0x42
  402858:	c422e030 	lwc1	$f2,-8144(at)
  40285c:	3c010042 	lui	at,0x42
  402860:	c423e034 	lwc1	$f3,-8140(at)
  402864:	3c010042 	lui	at,0x42
  402868:	c424e2f8 	lwc1	$f4,-7432(at)
  40286c:	3c010042 	lui	at,0x42
  402870:	c425e2fc 	lwc1	$f5,-7428(at)
  402874:	4622003b 	c.ngl.d	$f0,$f2
  402878:	4500093f 	bc1f	404d78 <fail>
  40287c:	00000000 	nop
  402880:	45010003 	bc1t	402890 <l320>
  402884:	00000000 	nop
  402888:	0810135e 	j	404d78 <fail>
  40288c:	00000000 	nop

00402890 <l320>:
  402890:	4624003b 	c.ngl.d	$f0,$f4
  402894:	45010938 	bc1t	404d78 <fail>
  402898:	00000000 	nop
  40289c:	45000003 	bc1f	4028ac <l321>
  4028a0:	00000000 	nop
  4028a4:	0810135e 	j	404d78 <fail>
  4028a8:	00000000 	nop

004028ac <l321>:
  4028ac:	24020004 	li	v0,4
  4028b0:	3c040042 	lui	a0,0x42
  4028b4:	2484e133 	addiu	a0,a0,-7885
  4028b8:	0000000c 	syscall
  4028bc:	3c010042 	lui	at,0x42
  4028c0:	c420e014 	lwc1	$f0,-8172(at)
  4028c4:	3c010042 	lui	at,0x42
  4028c8:	c422e014 	lwc1	$f2,-8172(at)
  4028cc:	3c010042 	lui	at,0x42
  4028d0:	c424e2d0 	lwc1	$f4,-7472(at)
  4028d4:	4602003b 	c.ngl.s	$f0,$f2
  4028d8:	45000927 	bc1f	404d78 <fail>
  4028dc:	00000000 	nop
  4028e0:	45010003 	bc1t	4028f0 <l330>
  4028e4:	00000000 	nop
  4028e8:	0810135e 	j	404d78 <fail>
  4028ec:	00000000 	nop

004028f0 <l330>:
  4028f0:	4604003b 	c.ngl.s	$f0,$f4
  4028f4:	45010920 	bc1t	404d78 <fail>
  4028f8:	00000000 	nop
  4028fc:	45000003 	bc1f	40290c <l331>
  402900:	00000000 	nop
  402904:	0810135e 	j	404d78 <fail>
  402908:	00000000 	nop

0040290c <l331>:
  40290c:	24020004 	li	v0,4
  402910:	3c040042 	lui	a0,0x42
  402914:	2484e144 	addiu	a0,a0,-7868
  402918:	0000000c 	syscall
  40291c:	3c010042 	lui	at,0x42
  402920:	c420e030 	lwc1	$f0,-8144(at)
  402924:	3c010042 	lui	at,0x42
  402928:	c421e034 	lwc1	$f1,-8140(at)
  40292c:	3c010042 	lui	at,0x42
  402930:	c422e2f8 	lwc1	$f2,-7432(at)
  402934:	3c010042 	lui	at,0x42
  402938:	c423e2fc 	lwc1	$f3,-7428(at)
  40293c:	3c010042 	lui	at,0x42
  402940:	c424dd40 	lwc1	$f4,-8896(at)
  402944:	3c010042 	lui	at,0x42
  402948:	c425dd44 	lwc1	$f5,-8892(at)
  40294c:	4622003f 	c.ngt.d	$f0,$f2
  402950:	45000909 	bc1f	404d78 <fail>
  402954:	00000000 	nop
  402958:	45010003 	bc1t	402968 <l340>
  40295c:	00000000 	nop
  402960:	0810135e 	j	404d78 <fail>
  402964:	00000000 	nop

00402968 <l340>:
  402968:	4620103f 	c.ngt.d	$f2,$f0
  40296c:	45010902 	bc1t	404d78 <fail>
  402970:	00000000 	nop
  402974:	45000003 	bc1f	402984 <l341>
  402978:	00000000 	nop
  40297c:	0810135e 	j	404d78 <fail>
  402980:	00000000 	nop

00402984 <l341>:
  402984:	4620003f 	c.ngt.d	$f0,$f0
  402988:	450008fb 	bc1f	404d78 <fail>
  40298c:	00000000 	nop
  402990:	45010003 	bc1t	4029a0 <l342>
  402994:	00000000 	nop
  402998:	0810135e 	j	404d78 <fail>
  40299c:	00000000 	nop

004029a0 <l342>:
  4029a0:	4620203f 	c.ngt.d	$f4,$f0
  4029a4:	450008f4 	bc1f	404d78 <fail>
  4029a8:	00000000 	nop
  4029ac:	45010003 	bc1t	4029bc <l343>
  4029b0:	00000000 	nop
  4029b4:	0810135e 	j	404d78 <fail>
  4029b8:	00000000 	nop

004029bc <l343>:
  4029bc:	24020004 	li	v0,4
  4029c0:	3c040042 	lui	a0,0x42
  4029c4:	2484e155 	addiu	a0,a0,-7851
  4029c8:	0000000c 	syscall
  4029cc:	3c010042 	lui	at,0x42
  4029d0:	c420e014 	lwc1	$f0,-8172(at)
  4029d4:	3c010042 	lui	at,0x42
  4029d8:	c422e2d0 	lwc1	$f2,-7472(at)
  4029dc:	3c010042 	lui	at,0x42
  4029e0:	c424e0b8 	lwc1	$f4,-8008(at)
  4029e4:	4602003f 	c.ngt.s	$f0,$f2
  4029e8:	450008e3 	bc1f	404d78 <fail>
  4029ec:	00000000 	nop
  4029f0:	45010003 	bc1t	402a00 <l350>
  4029f4:	00000000 	nop
  4029f8:	0810135e 	j	404d78 <fail>
  4029fc:	00000000 	nop

00402a00 <l350>:
  402a00:	4600103f 	c.ngt.s	$f2,$f0
  402a04:	450108dc 	bc1t	404d78 <fail>
  402a08:	00000000 	nop
  402a0c:	45000003 	bc1f	402a1c <l351>
  402a10:	00000000 	nop
  402a14:	0810135e 	j	404d78 <fail>
  402a18:	00000000 	nop

00402a1c <l351>:
  402a1c:	4600003f 	c.ngt.s	$f0,$f0
  402a20:	450008d5 	bc1f	404d78 <fail>
  402a24:	00000000 	nop
  402a28:	45010003 	bc1t	402a38 <l352>
  402a2c:	00000000 	nop
  402a30:	0810135e 	j	404d78 <fail>
  402a34:	00000000 	nop

00402a38 <l352>:
  402a38:	4600203f 	c.ngt.s	$f4,$f0
  402a3c:	450008ce 	bc1f	404d78 <fail>
  402a40:	00000000 	nop
  402a44:	45010003 	bc1t	402a54 <l353>
  402a48:	00000000 	nop
  402a4c:	0810135e 	j	404d78 <fail>
  402a50:	00000000 	nop

00402a54 <l353>:
  402a54:	24020004 	li	v0,4
  402a58:	3c040042 	lui	a0,0x42
  402a5c:	2484e166 	addiu	a0,a0,-7834
  402a60:	0000000c 	syscall
  402a64:	3c010042 	lui	at,0x42
  402a68:	c420e030 	lwc1	$f0,-8144(at)
  402a6c:	3c010042 	lui	at,0x42
  402a70:	c421e034 	lwc1	$f1,-8140(at)
  402a74:	3c010042 	lui	at,0x42
  402a78:	c422e2f8 	lwc1	$f2,-7432(at)
  402a7c:	3c010042 	lui	at,0x42
  402a80:	c423e2fc 	lwc1	$f3,-7428(at)
  402a84:	3c010042 	lui	at,0x42
  402a88:	c424dd40 	lwc1	$f4,-8896(at)
  402a8c:	3c010042 	lui	at,0x42
  402a90:	c425dd44 	lwc1	$f5,-8892(at)
  402a94:	46220036 	c.ole.d	$f0,$f2
  402a98:	450008b7 	bc1f	404d78 <fail>
  402a9c:	00000000 	nop
  402aa0:	45010003 	bc1t	402ab0 <l360>
  402aa4:	00000000 	nop
  402aa8:	0810135e 	j	404d78 <fail>
  402aac:	00000000 	nop

00402ab0 <l360>:
  402ab0:	46201036 	c.ole.d	$f2,$f0
  402ab4:	450108b0 	bc1t	404d78 <fail>
  402ab8:	00000000 	nop
  402abc:	45000003 	bc1f	402acc <l361>
  402ac0:	00000000 	nop
  402ac4:	0810135e 	j	404d78 <fail>
  402ac8:	00000000 	nop

00402acc <l361>:
  402acc:	46200036 	c.ole.d	$f0,$f0
  402ad0:	450008a9 	bc1f	404d78 <fail>
  402ad4:	00000000 	nop
  402ad8:	45010003 	bc1t	402ae8 <l362>
  402adc:	00000000 	nop
  402ae0:	0810135e 	j	404d78 <fail>
  402ae4:	00000000 	nop

00402ae8 <l362>:
  402ae8:	46202036 	c.ole.d	$f4,$f0
  402aec:	450008a2 	bc1f	404d78 <fail>
  402af0:	00000000 	nop
  402af4:	45010003 	bc1t	402b04 <l363>
  402af8:	00000000 	nop
  402afc:	0810135e 	j	404d78 <fail>
  402b00:	00000000 	nop

00402b04 <l363>:
  402b04:	24020004 	li	v0,4
  402b08:	3c040042 	lui	a0,0x42
  402b0c:	2484e177 	addiu	a0,a0,-7817
  402b10:	0000000c 	syscall
  402b14:	3c010042 	lui	at,0x42
  402b18:	c420e014 	lwc1	$f0,-8172(at)
  402b1c:	3c010042 	lui	at,0x42
  402b20:	c422e2d0 	lwc1	$f2,-7472(at)
  402b24:	3c010042 	lui	at,0x42
  402b28:	c424e0b8 	lwc1	$f4,-8008(at)
  402b2c:	46020036 	c.ole.s	$f0,$f2
  402b30:	45000891 	bc1f	404d78 <fail>
  402b34:	00000000 	nop
  402b38:	45010003 	bc1t	402b48 <l370>
  402b3c:	00000000 	nop
  402b40:	0810135e 	j	404d78 <fail>
  402b44:	00000000 	nop

00402b48 <l370>:
  402b48:	46001036 	c.ole.s	$f2,$f0
  402b4c:	4501088a 	bc1t	404d78 <fail>
  402b50:	00000000 	nop
  402b54:	45000003 	bc1f	402b64 <l371>
  402b58:	00000000 	nop
  402b5c:	0810135e 	j	404d78 <fail>
  402b60:	00000000 	nop

00402b64 <l371>:
  402b64:	46000036 	c.ole.s	$f0,$f0
  402b68:	45000883 	bc1f	404d78 <fail>
  402b6c:	00000000 	nop
  402b70:	45010003 	bc1t	402b80 <l372>
  402b74:	00000000 	nop
  402b78:	0810135e 	j	404d78 <fail>
  402b7c:	00000000 	nop

00402b80 <l372>:
  402b80:	46002036 	c.ole.s	$f4,$f0
  402b84:	4500087c 	bc1f	404d78 <fail>
  402b88:	00000000 	nop
  402b8c:	45010003 	bc1t	402b9c <l373>
  402b90:	00000000 	nop
  402b94:	0810135e 	j	404d78 <fail>
  402b98:	00000000 	nop

00402b9c <l373>:
  402b9c:	24020004 	li	v0,4
  402ba0:	3c040042 	lui	a0,0x42
  402ba4:	2484e188 	addiu	a0,a0,-7800
  402ba8:	0000000c 	syscall
  402bac:	3c010042 	lui	at,0x42
  402bb0:	c420e030 	lwc1	$f0,-8144(at)
  402bb4:	3c010042 	lui	at,0x42
  402bb8:	c421e034 	lwc1	$f1,-8140(at)
  402bbc:	3c010042 	lui	at,0x42
  402bc0:	c422e030 	lwc1	$f2,-8144(at)
  402bc4:	3c010042 	lui	at,0x42
  402bc8:	c423e034 	lwc1	$f3,-8140(at)
  402bcc:	3c010042 	lui	at,0x42
  402bd0:	c424e2f8 	lwc1	$f4,-7432(at)
  402bd4:	3c010042 	lui	at,0x42
  402bd8:	c425e2fc 	lwc1	$f5,-7428(at)
  402bdc:	4622003a 	c.seq.d	$f0,$f2
  402be0:	45000865 	bc1f	404d78 <fail>
  402be4:	00000000 	nop
  402be8:	45010003 	bc1t	402bf8 <l380>
  402bec:	00000000 	nop
  402bf0:	0810135e 	j	404d78 <fail>
  402bf4:	00000000 	nop

00402bf8 <l380>:
  402bf8:	4624003a 	c.seq.d	$f0,$f4
  402bfc:	4501085e 	bc1t	404d78 <fail>
  402c00:	00000000 	nop
  402c04:	45000003 	bc1f	402c14 <l381>
  402c08:	00000000 	nop
  402c0c:	0810135e 	j	404d78 <fail>
  402c10:	00000000 	nop

00402c14 <l381>:
  402c14:	24020004 	li	v0,4
  402c18:	3c040042 	lui	a0,0x42
  402c1c:	2484e199 	addiu	a0,a0,-7783
  402c20:	0000000c 	syscall
  402c24:	3c010042 	lui	at,0x42
  402c28:	c420e014 	lwc1	$f0,-8172(at)
  402c2c:	3c010042 	lui	at,0x42
  402c30:	c422e014 	lwc1	$f2,-8172(at)
  402c34:	3c010042 	lui	at,0x42
  402c38:	c424e2d0 	lwc1	$f4,-7472(at)
  402c3c:	4602003a 	c.seq.s	$f0,$f2
  402c40:	4500084d 	bc1f	404d78 <fail>
  402c44:	00000000 	nop
  402c48:	45010003 	bc1t	402c58 <l390>
  402c4c:	00000000 	nop
  402c50:	0810135e 	j	404d78 <fail>
  402c54:	00000000 	nop

00402c58 <l390>:
  402c58:	4604003a 	c.seq.s	$f0,$f4
  402c5c:	45010846 	bc1t	404d78 <fail>
  402c60:	00000000 	nop
  402c64:	45000003 	bc1f	402c74 <l391>
  402c68:	00000000 	nop
  402c6c:	0810135e 	j	404d78 <fail>
  402c70:	00000000 	nop

00402c74 <l391>:
  402c74:	24020004 	li	v0,4
  402c78:	3c040042 	lui	a0,0x42
  402c7c:	2484e1aa 	addiu	a0,a0,-7766
  402c80:	0000000c 	syscall
  402c84:	3c010042 	lui	at,0x42
  402c88:	c420e030 	lwc1	$f0,-8144(at)
  402c8c:	3c010042 	lui	at,0x42
  402c90:	c421e034 	lwc1	$f1,-8140(at)
  402c94:	3c010042 	lui	at,0x42
  402c98:	c422e030 	lwc1	$f2,-8144(at)
  402c9c:	3c010042 	lui	at,0x42
  402ca0:	c423e034 	lwc1	$f3,-8140(at)
  402ca4:	3c010042 	lui	at,0x42
  402ca8:	c424e2f8 	lwc1	$f4,-7432(at)
  402cac:	3c010042 	lui	at,0x42
  402cb0:	c425e2fc 	lwc1	$f5,-7428(at)
  402cb4:	46220038 	c.sf.d	$f0,$f2
  402cb8:	4501082f 	bc1t	404d78 <fail>
  402cbc:	00000000 	nop

00402cc0 <l400>:
  402cc0:	46240038 	c.sf.d	$f0,$f4
  402cc4:	4501082c 	bc1t	404d78 <fail>
  402cc8:	00000000 	nop

00402ccc <l401>:
  402ccc:	24020004 	li	v0,4
  402cd0:	3c040042 	lui	a0,0x42
  402cd4:	2484e1ba 	addiu	a0,a0,-7750
  402cd8:	0000000c 	syscall
  402cdc:	3c010042 	lui	at,0x42
  402ce0:	c420e014 	lwc1	$f0,-8172(at)
  402ce4:	3c010042 	lui	at,0x42
  402ce8:	c422e014 	lwc1	$f2,-8172(at)
  402cec:	3c010042 	lui	at,0x42
  402cf0:	c424e2d0 	lwc1	$f4,-7472(at)
  402cf4:	46020038 	c.sf.s	$f0,$f2
  402cf8:	4501081f 	bc1t	404d78 <fail>
  402cfc:	00000000 	nop

00402d00 <l410>:
  402d00:	46040038 	c.sf.s	$f0,$f4
  402d04:	4501081c 	bc1t	404d78 <fail>
  402d08:	00000000 	nop

00402d0c <l411>:
  402d0c:	24020004 	li	v0,4
  402d10:	3c040042 	lui	a0,0x42
  402d14:	2484e1ca 	addiu	a0,a0,-7734
  402d18:	0000000c 	syscall
  402d1c:	3c010042 	lui	at,0x42
  402d20:	c420e030 	lwc1	$f0,-8144(at)
  402d24:	3c010042 	lui	at,0x42
  402d28:	c421e034 	lwc1	$f1,-8140(at)
  402d2c:	3c010042 	lui	at,0x42
  402d30:	c422e030 	lwc1	$f2,-8144(at)
  402d34:	3c010042 	lui	at,0x42
  402d38:	c423e034 	lwc1	$f3,-8140(at)
  402d3c:	3c010042 	lui	at,0x42
  402d40:	c424e2f8 	lwc1	$f4,-7432(at)
  402d44:	3c010042 	lui	at,0x42
  402d48:	c425e2fc 	lwc1	$f5,-7428(at)
  402d4c:	46220033 	c.ueq.d	$f0,$f2
  402d50:	45000809 	bc1f	404d78 <fail>
  402d54:	00000000 	nop
  402d58:	45010003 	bc1t	402d68 <l420>
  402d5c:	00000000 	nop
  402d60:	0810135e 	j	404d78 <fail>
  402d64:	00000000 	nop

00402d68 <l420>:
  402d68:	46240033 	c.ueq.d	$f0,$f4
  402d6c:	45010802 	bc1t	404d78 <fail>
  402d70:	00000000 	nop
  402d74:	45000003 	bc1f	402d84 <l421>
  402d78:	00000000 	nop
  402d7c:	0810135e 	j	404d78 <fail>
  402d80:	00000000 	nop

00402d84 <l421>:
  402d84:	24020004 	li	v0,4
  402d88:	3c040042 	lui	a0,0x42
  402d8c:	2484e1db 	addiu	a0,a0,-7717
  402d90:	0000000c 	syscall
  402d94:	3c010042 	lui	at,0x42
  402d98:	c420e014 	lwc1	$f0,-8172(at)
  402d9c:	3c010042 	lui	at,0x42
  402da0:	c422e014 	lwc1	$f2,-8172(at)
  402da4:	3c010042 	lui	at,0x42
  402da8:	c424e2d0 	lwc1	$f4,-7472(at)
  402dac:	46020033 	c.ueq.s	$f0,$f2
  402db0:	450007f1 	bc1f	404d78 <fail>
  402db4:	00000000 	nop
  402db8:	45010003 	bc1t	402dc8 <l430>
  402dbc:	00000000 	nop
  402dc0:	0810135e 	j	404d78 <fail>
  402dc4:	00000000 	nop

00402dc8 <l430>:
  402dc8:	46040033 	c.ueq.s	$f0,$f4
  402dcc:	450107ea 	bc1t	404d78 <fail>
  402dd0:	00000000 	nop
  402dd4:	45000003 	bc1f	402de4 <l431>
  402dd8:	00000000 	nop
  402ddc:	0810135e 	j	404d78 <fail>
  402de0:	00000000 	nop

00402de4 <l431>:
  402de4:	24020004 	li	v0,4
  402de8:	3c040042 	lui	a0,0x42
  402dec:	2484e1ec 	addiu	a0,a0,-7700
  402df0:	0000000c 	syscall
  402df4:	3c010042 	lui	at,0x42
  402df8:	c420e030 	lwc1	$f0,-8144(at)
  402dfc:	3c010042 	lui	at,0x42
  402e00:	c421e034 	lwc1	$f1,-8140(at)
  402e04:	3c010042 	lui	at,0x42
  402e08:	c422e2f8 	lwc1	$f2,-7432(at)
  402e0c:	3c010042 	lui	at,0x42
  402e10:	c423e2fc 	lwc1	$f3,-7428(at)
  402e14:	3c010042 	lui	at,0x42
  402e18:	c424dd40 	lwc1	$f4,-8896(at)
  402e1c:	3c010042 	lui	at,0x42
  402e20:	c425dd44 	lwc1	$f5,-8892(at)
  402e24:	46220037 	c.ule.d	$f0,$f2
  402e28:	450007d3 	bc1f	404d78 <fail>
  402e2c:	00000000 	nop
  402e30:	45010003 	bc1t	402e40 <l440>
  402e34:	00000000 	nop
  402e38:	0810135e 	j	404d78 <fail>
  402e3c:	00000000 	nop

00402e40 <l440>:
  402e40:	46201037 	c.ule.d	$f2,$f0
  402e44:	450107cc 	bc1t	404d78 <fail>
  402e48:	00000000 	nop
  402e4c:	45000003 	bc1f	402e5c <l441>
  402e50:	00000000 	nop
  402e54:	0810135e 	j	404d78 <fail>
  402e58:	00000000 	nop

00402e5c <l441>:
  402e5c:	46200037 	c.ule.d	$f0,$f0
  402e60:	450007c5 	bc1f	404d78 <fail>
  402e64:	00000000 	nop
  402e68:	45010003 	bc1t	402e78 <l442>
  402e6c:	00000000 	nop
  402e70:	0810135e 	j	404d78 <fail>
  402e74:	00000000 	nop

00402e78 <l442>:
  402e78:	46202037 	c.ule.d	$f4,$f0
  402e7c:	450007be 	bc1f	404d78 <fail>
  402e80:	00000000 	nop
  402e84:	45010003 	bc1t	402e94 <l443>
  402e88:	00000000 	nop
  402e8c:	0810135e 	j	404d78 <fail>
  402e90:	00000000 	nop

00402e94 <l443>:
  402e94:	24020004 	li	v0,4
  402e98:	3c040042 	lui	a0,0x42
  402e9c:	2484e1fd 	addiu	a0,a0,-7683
  402ea0:	0000000c 	syscall
  402ea4:	3c010042 	lui	at,0x42
  402ea8:	c420e014 	lwc1	$f0,-8172(at)
  402eac:	3c010042 	lui	at,0x42
  402eb0:	c422e2d0 	lwc1	$f2,-7472(at)
  402eb4:	3c010042 	lui	at,0x42
  402eb8:	c424e0b8 	lwc1	$f4,-8008(at)
  402ebc:	46020037 	c.ule.s	$f0,$f2
  402ec0:	450007ad 	bc1f	404d78 <fail>
  402ec4:	00000000 	nop
  402ec8:	45010003 	bc1t	402ed8 <l450>
  402ecc:	00000000 	nop
  402ed0:	0810135e 	j	404d78 <fail>
  402ed4:	00000000 	nop

00402ed8 <l450>:
  402ed8:	46001037 	c.ule.s	$f2,$f0
  402edc:	450107a6 	bc1t	404d78 <fail>
  402ee0:	00000000 	nop
  402ee4:	45000003 	bc1f	402ef4 <l451>
  402ee8:	00000000 	nop
  402eec:	0810135e 	j	404d78 <fail>
  402ef0:	00000000 	nop

00402ef4 <l451>:
  402ef4:	46000037 	c.ule.s	$f0,$f0
  402ef8:	4500079f 	bc1f	404d78 <fail>
  402efc:	00000000 	nop
  402f00:	45010003 	bc1t	402f10 <l452>
  402f04:	00000000 	nop
  402f08:	0810135e 	j	404d78 <fail>
  402f0c:	00000000 	nop

00402f10 <l452>:
  402f10:	46002037 	c.ule.s	$f4,$f0
  402f14:	45000798 	bc1f	404d78 <fail>
  402f18:	00000000 	nop
  402f1c:	45010003 	bc1t	402f2c <l453>
  402f20:	00000000 	nop
  402f24:	0810135e 	j	404d78 <fail>
  402f28:	00000000 	nop

00402f2c <l453>:
  402f2c:	24020004 	li	v0,4
  402f30:	3c040042 	lui	a0,0x42
  402f34:	2484e20e 	addiu	a0,a0,-7666
  402f38:	0000000c 	syscall
  402f3c:	3c010042 	lui	at,0x42
  402f40:	c420e030 	lwc1	$f0,-8144(at)
  402f44:	3c010042 	lui	at,0x42
  402f48:	c421e034 	lwc1	$f1,-8140(at)
  402f4c:	3c010042 	lui	at,0x42
  402f50:	c422e030 	lwc1	$f2,-8144(at)
  402f54:	3c010042 	lui	at,0x42
  402f58:	c423e034 	lwc1	$f3,-8140(at)
  402f5c:	3c010042 	lui	at,0x42
  402f60:	c424e2f8 	lwc1	$f4,-7432(at)
  402f64:	3c010042 	lui	at,0x42
  402f68:	c425e2fc 	lwc1	$f5,-7428(at)
  402f6c:	46220031 	c.un.d	$f0,$f2
  402f70:	45010781 	bc1t	404d78 <fail>
  402f74:	00000000 	nop
  402f78:	45000003 	bc1f	402f88 <l460>
  402f7c:	00000000 	nop
  402f80:	0810135e 	j	404d78 <fail>
  402f84:	00000000 	nop

00402f88 <l460>:
  402f88:	46240031 	c.un.d	$f0,$f4
  402f8c:	4501077a 	bc1t	404d78 <fail>
  402f90:	00000000 	nop
  402f94:	45000003 	bc1f	402fa4 <l461>
  402f98:	00000000 	nop
  402f9c:	0810135e 	j	404d78 <fail>
  402fa0:	00000000 	nop

00402fa4 <l461>:
  402fa4:	24020004 	li	v0,4
  402fa8:	3c040042 	lui	a0,0x42
  402fac:	2484e21e 	addiu	a0,a0,-7650
  402fb0:	0000000c 	syscall
  402fb4:	3c010042 	lui	at,0x42
  402fb8:	c420e014 	lwc1	$f0,-8172(at)
  402fbc:	3c010042 	lui	at,0x42
  402fc0:	c422e014 	lwc1	$f2,-8172(at)
  402fc4:	3c010042 	lui	at,0x42
  402fc8:	c424e2d0 	lwc1	$f4,-7472(at)
  402fcc:	46020031 	c.un.s	$f0,$f2
  402fd0:	45010769 	bc1t	404d78 <fail>
  402fd4:	00000000 	nop
  402fd8:	45000003 	bc1f	402fe8 <l470>
  402fdc:	00000000 	nop
  402fe0:	0810135e 	j	404d78 <fail>
  402fe4:	00000000 	nop

00402fe8 <l470>:
  402fe8:	46040031 	c.un.s	$f0,$f4
  402fec:	45010762 	bc1t	404d78 <fail>
  402ff0:	00000000 	nop
  402ff4:	45000003 	bc1f	403004 <l471>
  402ff8:	00000000 	nop
  402ffc:	0810135e 	j	404d78 <fail>
  403000:	00000000 	nop

00403004 <l471>:
  403004:	24020004 	li	v0,4
  403008:	3c040042 	lui	a0,0x42
  40300c:	2484e22e 	addiu	a0,a0,-7634
  403010:	0000000c 	syscall
  403014:	3c010042 	lui	at,0x42
  403018:	c422e028 	lwc1	$f2,-8152(at)
  40301c:	3c010042 	lui	at,0x42
  403020:	c423e02c 	lwc1	$f3,-8148(at)
  403024:	4620100e 	ceil.w.d	$f0,$f2
  403028:	44060000 	mfc1	a2,$f0
  40302c:	14c00752 	bnez	a2,404d78 <fail>
  403030:	00000000 	nop
  403034:	3c010042 	lui	at,0x42
  403038:	c422e030 	lwc1	$f2,-8144(at)
  40303c:	3c010042 	lui	at,0x42
  403040:	c423e034 	lwc1	$f3,-8140(at)
  403044:	4620100e 	ceil.w.d	$f0,$f2
  403048:	44060000 	mfc1	a2,$f0
  40304c:	24010001 	li	at,1
  403050:	14c10749 	bne	a2,at,404d78 <fail>
  403054:	00000000 	nop
  403058:	3c010042 	lui	at,0x42
  40305c:	c422e2f8 	lwc1	$f2,-7432(at)
  403060:	3c010042 	lui	at,0x42
  403064:	c423e2fc 	lwc1	$f3,-7428(at)
  403068:	4620100e 	ceil.w.d	$f0,$f2
  40306c:	44060000 	mfc1	a2,$f0
  403070:	24010002 	li	at,2
  403074:	14c10740 	bne	a2,at,404d78 <fail>
  403078:	00000000 	nop
  40307c:	24020004 	li	v0,4
  403080:	3c040042 	lui	a0,0x42
  403084:	2484e240 	addiu	a0,a0,-7616
  403088:	0000000c 	syscall
  40308c:	3c010042 	lui	at,0x42
  403090:	c422e010 	lwc1	$f2,-8176(at)
  403094:	4600100e 	ceil.w.s	$f0,$f2
  403098:	44060000 	mfc1	a2,$f0
  40309c:	14c00736 	bnez	a2,404d78 <fail>
  4030a0:	00000000 	nop
  4030a4:	3c010042 	lui	at,0x42
  4030a8:	c422e014 	lwc1	$f2,-8172(at)
  4030ac:	4600100e 	ceil.w.s	$f0,$f2
  4030b0:	44060000 	mfc1	a2,$f0
  4030b4:	24010001 	li	at,1
  4030b8:	14c1072f 	bne	a2,at,404d78 <fail>
  4030bc:	00000000 	nop
  4030c0:	3c010042 	lui	at,0x42
  4030c4:	c422e2d0 	lwc1	$f2,-7472(at)
  4030c8:	4600100e 	ceil.w.s	$f0,$f2
  4030cc:	44060000 	mfc1	a2,$f0
  4030d0:	24010002 	li	at,2
  4030d4:	14c10728 	bne	a2,at,404d78 <fail>
  4030d8:	00000000 	nop
  4030dc:	24020004 	li	v0,4
  4030e0:	3c040042 	lui	a0,0x42
  4030e4:	2484e252 	addiu	a0,a0,-7598
  4030e8:	0000000c 	syscall
  4030ec:	3c040042 	lui	a0,0x42
  4030f0:	8c84e028 	lw	a0,-8152(a0)
  4030f4:	3c050042 	lui	a1,0x42
  4030f8:	8ca5e02c 	lw	a1,-8148(a1)
  4030fc:	3c010042 	lui	at,0x42
  403100:	c420e010 	lwc1	$f0,-8176(at)
  403104:	460000a1 	cvt.d.s	$f2,$f0
  403108:	44061000 	mfc1	a2,$f2
  40310c:	44071800 	mfc1	a3,$f3
  403110:	14860719 	bne	a0,a2,404d78 <fail>
  403114:	00000000 	nop
  403118:	14a70717 	bne	a1,a3,404d78 <fail>
  40311c:	00000000 	nop
  403120:	3c040042 	lui	a0,0x42
  403124:	8c84e030 	lw	a0,-8144(a0)
  403128:	3c050042 	lui	a1,0x42
  40312c:	8ca5e034 	lw	a1,-8140(a1)
  403130:	3c010042 	lui	at,0x42
  403134:	c420e014 	lwc1	$f0,-8172(at)
  403138:	460000a1 	cvt.d.s	$f2,$f0
  40313c:	44061000 	mfc1	a2,$f2
  403140:	44071800 	mfc1	a3,$f3
  403144:	1486070c 	bne	a0,a2,404d78 <fail>
  403148:	00000000 	nop
  40314c:	14a7070a 	bne	a1,a3,404d78 <fail>
  403150:	00000000 	nop
  403154:	3c040042 	lui	a0,0x42
  403158:	8c84e038 	lw	a0,-8136(a0)
  40315c:	3c050042 	lui	a1,0x42
  403160:	8ca5e03c 	lw	a1,-8132(a1)
  403164:	3c010042 	lui	at,0x42
  403168:	c420dd3c 	lwc1	$f0,-8900(at)
  40316c:	460000a1 	cvt.d.s	$f2,$f0
  403170:	44061000 	mfc1	a2,$f2
  403174:	44071800 	mfc1	a3,$f3
  403178:	148606ff 	bne	a0,a2,404d78 <fail>
  40317c:	00000000 	nop
  403180:	14a706fd 	bne	a1,a3,404d78 <fail>
  403184:	00000000 	nop
  403188:	24020004 	li	v0,4
  40318c:	3c040042 	lui	a0,0x42
  403190:	2484e263 	addiu	a0,a0,-7581
  403194:	0000000c 	syscall
  403198:	3c040042 	lui	a0,0x42
  40319c:	8c84e028 	lw	a0,-8152(a0)
  4031a0:	3c050042 	lui	a1,0x42
  4031a4:	8ca5e02c 	lw	a1,-8148(a1)
  4031a8:	44800000 	mtc1	zero,$f0
  4031ac:	468000a1 	cvt.d.w	$f2,$f0
  4031b0:	44061000 	mfc1	a2,$f2
  4031b4:	44071800 	mfc1	a3,$f3
  4031b8:	148606ef 	bne	a0,a2,404d78 <fail>
  4031bc:	00000000 	nop
  4031c0:	14a706ed 	bne	a1,a3,404d78 <fail>
  4031c4:	00000000 	nop
  4031c8:	3c040042 	lui	a0,0x42
  4031cc:	8c84e030 	lw	a0,-8144(a0)
  4031d0:	3c050042 	lui	a1,0x42
  4031d4:	8ca5e034 	lw	a1,-8140(a1)
  4031d8:	24090001 	li	t1,1
  4031dc:	44890000 	mtc1	t1,$f0
  4031e0:	468000a1 	cvt.d.w	$f2,$f0
  4031e4:	44061000 	mfc1	a2,$f2
  4031e8:	44071800 	mfc1	a3,$f3
  4031ec:	148606e2 	bne	a0,a2,404d78 <fail>
  4031f0:	00000000 	nop
  4031f4:	14a706e0 	bne	a1,a3,404d78 <fail>
  4031f8:	00000000 	nop
  4031fc:	3c040042 	lui	a0,0x42
  403200:	8c84e038 	lw	a0,-8136(a0)
  403204:	3c050042 	lui	a1,0x42
  403208:	8ca5e03c 	lw	a1,-8132(a1)
  40320c:	2409ffff 	li	t1,-1
  403210:	44890000 	mtc1	t1,$f0
  403214:	468000a1 	cvt.d.w	$f2,$f0
  403218:	44061000 	mfc1	a2,$f2
  40321c:	44071800 	mfc1	a3,$f3
  403220:	148606d5 	bne	a0,a2,404d78 <fail>
  403224:	00000000 	nop
  403228:	14a706d3 	bne	a1,a3,404d78 <fail>
  40322c:	00000000 	nop
  403230:	24020004 	li	v0,4
  403234:	3c040042 	lui	a0,0x42
  403238:	2484e274 	addiu	a0,a0,-7564
  40323c:	0000000c 	syscall
  403240:	3c040042 	lui	a0,0x42
  403244:	8c84e010 	lw	a0,-8176(a0)
  403248:	3c010042 	lui	at,0x42
  40324c:	c420e028 	lwc1	$f0,-8152(at)
  403250:	3c010042 	lui	at,0x42
  403254:	c421e02c 	lwc1	$f1,-8148(at)
  403258:	462000a0 	cvt.s.d	$f2,$f0
  40325c:	44061000 	mfc1	a2,$f2
  403260:	148606c5 	bne	a0,a2,404d78 <fail>
  403264:	00000000 	nop
  403268:	3c040042 	lui	a0,0x42
  40326c:	8c84e014 	lw	a0,-8172(a0)
  403270:	3c010042 	lui	at,0x42
  403274:	c420e030 	lwc1	$f0,-8144(at)
  403278:	3c010042 	lui	at,0x42
  40327c:	c421e034 	lwc1	$f1,-8140(at)
  403280:	462000a0 	cvt.s.d	$f2,$f0
  403284:	44061000 	mfc1	a2,$f2
  403288:	148606bb 	bne	a0,a2,404d78 <fail>
  40328c:	00000000 	nop
  403290:	3c040042 	lui	a0,0x42
  403294:	8c84dd3c 	lw	a0,-8900(a0)
  403298:	3c010042 	lui	at,0x42
  40329c:	c420e038 	lwc1	$f0,-8136(at)
  4032a0:	3c010042 	lui	at,0x42
  4032a4:	c421e03c 	lwc1	$f1,-8132(at)
  4032a8:	462000a0 	cvt.s.d	$f2,$f0
  4032ac:	44061000 	mfc1	a2,$f2
  4032b0:	148606b1 	bne	a0,a2,404d78 <fail>
  4032b4:	00000000 	nop
  4032b8:	24020004 	li	v0,4
  4032bc:	3c040042 	lui	a0,0x42
  4032c0:	2484e285 	addiu	a0,a0,-7547
  4032c4:	0000000c 	syscall
  4032c8:	3c040042 	lui	a0,0x42
  4032cc:	8c84e010 	lw	a0,-8176(a0)
  4032d0:	44800000 	mtc1	zero,$f0
  4032d4:	468000a0 	cvt.s.w	$f2,$f0
  4032d8:	44061000 	mfc1	a2,$f2
  4032dc:	148606a6 	bne	a0,a2,404d78 <fail>
  4032e0:	00000000 	nop
  4032e4:	3c040042 	lui	a0,0x42
  4032e8:	8c84e014 	lw	a0,-8172(a0)
  4032ec:	24090001 	li	t1,1
  4032f0:	44890000 	mtc1	t1,$f0
  4032f4:	468000a0 	cvt.s.w	$f2,$f0
  4032f8:	44061000 	mfc1	a2,$f2
  4032fc:	1486069e 	bne	a0,a2,404d78 <fail>
  403300:	00000000 	nop
  403304:	3c040042 	lui	a0,0x42
  403308:	8c84dd3c 	lw	a0,-8900(a0)
  40330c:	2409ffff 	li	t1,-1
  403310:	44890000 	mtc1	t1,$f0
  403314:	468000a0 	cvt.s.w	$f2,$f0
  403318:	44061000 	mfc1	a2,$f2
  40331c:	14860696 	bne	a0,a2,404d78 <fail>
  403320:	00000000 	nop
  403324:	24020004 	li	v0,4
  403328:	3c040042 	lui	a0,0x42
  40332c:	2484e296 	addiu	a0,a0,-7530
  403330:	0000000c 	syscall
  403334:	3c010042 	lui	at,0x42
  403338:	c420e028 	lwc1	$f0,-8152(at)
  40333c:	3c010042 	lui	at,0x42
  403340:	c421e02c 	lwc1	$f1,-8148(at)
  403344:	462000a4 	cvt.w.d	$f2,$f0
  403348:	44061000 	mfc1	a2,$f2
  40334c:	1406068a 	bne	zero,a2,404d78 <fail>
  403350:	00000000 	nop
  403354:	3c010042 	lui	at,0x42
  403358:	c420e030 	lwc1	$f0,-8144(at)
  40335c:	3c010042 	lui	at,0x42
  403360:	c421e034 	lwc1	$f1,-8140(at)
  403364:	462000a4 	cvt.w.d	$f2,$f0
  403368:	44061000 	mfc1	a2,$f2
  40336c:	24040001 	li	a0,1
  403370:	14860681 	bne	a0,a2,404d78 <fail>
  403374:	00000000 	nop
  403378:	3c010042 	lui	at,0x42
  40337c:	c420e038 	lwc1	$f0,-8136(at)
  403380:	3c010042 	lui	at,0x42
  403384:	c421e03c 	lwc1	$f1,-8132(at)
  403388:	462000a4 	cvt.w.d	$f2,$f0
  40338c:	44061000 	mfc1	a2,$f2
  403390:	2404ffff 	li	a0,-1
  403394:	14860678 	bne	a0,a2,404d78 <fail>
  403398:	00000000 	nop
  40339c:	24020004 	li	v0,4
  4033a0:	3c040042 	lui	a0,0x42
  4033a4:	2484e2a7 	addiu	a0,a0,-7513
  4033a8:	0000000c 	syscall
  4033ac:	3c010042 	lui	at,0x42
  4033b0:	c420e010 	lwc1	$f0,-8176(at)
  4033b4:	460000a4 	cvt.w.s	$f2,$f0
  4033b8:	44061000 	mfc1	a2,$f2
  4033bc:	1406066e 	bne	zero,a2,404d78 <fail>
  4033c0:	00000000 	nop
  4033c4:	3c010042 	lui	at,0x42
  4033c8:	c420e014 	lwc1	$f0,-8172(at)
  4033cc:	460000a4 	cvt.w.s	$f2,$f0
  4033d0:	44061000 	mfc1	a2,$f2
  4033d4:	24040001 	li	a0,1
  4033d8:	14860667 	bne	a0,a2,404d78 <fail>
  4033dc:	00000000 	nop
  4033e0:	3c010042 	lui	at,0x42
  4033e4:	c420dd3c 	lwc1	$f0,-8900(at)
  4033e8:	460000a4 	cvt.w.s	$f2,$f0
  4033ec:	44061000 	mfc1	a2,$f2
  4033f0:	2404ffff 	li	a0,-1
  4033f4:	14860660 	bne	a0,a2,404d78 <fail>
  4033f8:	00000000 	nop
  4033fc:	24020004 	li	v0,4
  403400:	3c040042 	lui	a0,0x42
  403404:	2484e2b8 	addiu	a0,a0,-7496
  403408:	0000000c 	syscall
  40340c:	3c040042 	lui	a0,0x42
  403410:	8c84e014 	lw	a0,-8172(a0)
  403414:	3c010042 	lui	at,0x42
  403418:	c420e014 	lwc1	$f0,-8172(at)
  40341c:	46000083 	div.s	$f2,$f0,$f0
  403420:	44061000 	mfc1	a2,$f2
  403424:	14860654 	bne	a0,a2,404d78 <fail>
  403428:	00000000 	nop
  40342c:	3c040042 	lui	a0,0x42
  403430:	8c84e2d0 	lw	a0,-7472(a0)
  403434:	3c010042 	lui	at,0x42
  403438:	c420e2cc 	lwc1	$f0,-7476(at)
  40343c:	3c010042 	lui	at,0x42
  403440:	c422e2c8 	lwc1	$f2,-7480(at)
  403444:	46020103 	div.s	$f4,$f0,$f2
  403448:	44062000 	mfc1	a2,$f4
  40344c:	1486064a 	bne	a0,a2,404d78 <fail>
  403450:	00000000 	nop
  403454:	24020004 	li	v0,4
  403458:	3c040042 	lui	a0,0x42
  40345c:	2484e2d4 	addiu	a0,a0,-7468
  403460:	0000000c 	syscall
  403464:	3c040042 	lui	a0,0x42
  403468:	8c84e030 	lw	a0,-8144(a0)
  40346c:	3c050042 	lui	a1,0x42
  403470:	8ca5e034 	lw	a1,-8140(a1)
  403474:	3c010042 	lui	at,0x42
  403478:	c420e030 	lwc1	$f0,-8144(at)
  40347c:	3c010042 	lui	at,0x42
  403480:	c421e034 	lwc1	$f1,-8140(at)
  403484:	46200083 	div.d	$f2,$f0,$f0
  403488:	44061000 	mfc1	a2,$f2
  40348c:	44071800 	mfc1	a3,$f3
  403490:	14860639 	bne	a0,a2,404d78 <fail>
  403494:	00000000 	nop
  403498:	14a70637 	bne	a1,a3,404d78 <fail>
  40349c:	00000000 	nop
  4034a0:	3c040042 	lui	a0,0x42
  4034a4:	8c84e2f8 	lw	a0,-7432(a0)
  4034a8:	3c050042 	lui	a1,0x42
  4034ac:	8ca5e2fc 	lw	a1,-7428(a1)
  4034b0:	3c010042 	lui	at,0x42
  4034b4:	c420e2f0 	lwc1	$f0,-7440(at)
  4034b8:	3c010042 	lui	at,0x42
  4034bc:	c421e2f4 	lwc1	$f1,-7436(at)
  4034c0:	3c010042 	lui	at,0x42
  4034c4:	c422e2e8 	lwc1	$f2,-7448(at)
  4034c8:	3c010042 	lui	at,0x42
  4034cc:	c423e2ec 	lwc1	$f3,-7444(at)
  4034d0:	46220103 	div.d	$f4,$f0,$f2
  4034d4:	44062000 	mfc1	a2,$f4
  4034d8:	44072800 	mfc1	a3,$f5
  4034dc:	14860626 	bne	a0,a2,404d78 <fail>
  4034e0:	00000000 	nop
  4034e4:	14a70624 	bne	a1,a3,404d78 <fail>
  4034e8:	00000000 	nop
  4034ec:	24020004 	li	v0,4
  4034f0:	3c040042 	lui	a0,0x42
  4034f4:	2484e300 	addiu	a0,a0,-7424
  4034f8:	0000000c 	syscall
  4034fc:	3c010042 	lui	at,0x42
  403500:	c422e028 	lwc1	$f2,-8152(at)
  403504:	3c010042 	lui	at,0x42
  403508:	c423e02c 	lwc1	$f3,-8148(at)
  40350c:	4620100f 	floor.w.d	$f0,$f2
  403510:	44060000 	mfc1	a2,$f0
  403514:	14c00618 	bnez	a2,404d78 <fail>
  403518:	00000000 	nop
  40351c:	3c010042 	lui	at,0x42
  403520:	c422e030 	lwc1	$f2,-8144(at)
  403524:	3c010042 	lui	at,0x42
  403528:	c423e034 	lwc1	$f3,-8140(at)
  40352c:	4620100f 	floor.w.d	$f0,$f2
  403530:	44060000 	mfc1	a2,$f0
  403534:	24010001 	li	at,1
  403538:	14c1060f 	bne	a2,at,404d78 <fail>
  40353c:	00000000 	nop
  403540:	3c010042 	lui	at,0x42
  403544:	c422e2f8 	lwc1	$f2,-7432(at)
  403548:	3c010042 	lui	at,0x42
  40354c:	c423e2fc 	lwc1	$f3,-7428(at)
  403550:	4620100f 	floor.w.d	$f0,$f2
  403554:	44060000 	mfc1	a2,$f0
  403558:	24010001 	li	at,1
  40355c:	14c10606 	bne	a2,at,404d78 <fail>
  403560:	00000000 	nop
  403564:	24020004 	li	v0,4
  403568:	3c040042 	lui	a0,0x42
  40356c:	2484e313 	addiu	a0,a0,-7405
  403570:	0000000c 	syscall
  403574:	3c010042 	lui	at,0x42
  403578:	c422e010 	lwc1	$f2,-8176(at)
  40357c:	4600100f 	floor.w.s	$f0,$f2
  403580:	44060000 	mfc1	a2,$f0
  403584:	14c005fc 	bnez	a2,404d78 <fail>
  403588:	00000000 	nop
  40358c:	3c010042 	lui	at,0x42
  403590:	c422e014 	lwc1	$f2,-8172(at)
  403594:	4600100f 	floor.w.s	$f0,$f2
  403598:	44060000 	mfc1	a2,$f0
  40359c:	24010001 	li	at,1
  4035a0:	14c105f5 	bne	a2,at,404d78 <fail>
  4035a4:	00000000 	nop
  4035a8:	3c010042 	lui	at,0x42
  4035ac:	c422e2d0 	lwc1	$f2,-7472(at)
  4035b0:	4600100f 	floor.w.s	$f0,$f2
  4035b4:	44060000 	mfc1	a2,$f0
  4035b8:	24010001 	li	at,1
  4035bc:	14c105ee 	bne	a2,at,404d78 <fail>
  4035c0:	00000000 	nop
  4035c4:	24020004 	li	v0,4
  4035c8:	3c040042 	lui	a0,0x42
  4035cc:	2484e326 	addiu	a0,a0,-7386
  4035d0:	0000000c 	syscall
  4035d4:	3c020042 	lui	v0,0x42
  4035d8:	2442e334 	addiu	v0,v0,-7372
  4035dc:	d4400000 	ldc1	$f0,0(v0)
  4035e0:	44030000 	mfc1	v1,$f0
  4035e4:	44040800 	mfc1	a0,$f1
  4035e8:	8c450000 	lw	a1,0(v0)
  4035ec:	14a305e2 	bne	a1,v1,404d78 <fail>
  4035f0:	00000000 	nop
  4035f4:	8c450004 	lw	a1,4(v0)
  4035f8:	14a405df 	bne	a1,a0,404d78 <fail>
  4035fc:	00000000 	nop
  403600:	24020004 	li	v0,4
  403604:	3c040042 	lui	a0,0x42
  403608:	2484e33c 	addiu	a0,a0,-7364
  40360c:	0000000c 	syscall
  403610:	3c020042 	lui	v0,0x42
  403614:	2442e34c 	addiu	v0,v0,-7348
  403618:	d4400000 	ldc1	$f0,0(v0)
  40361c:	44030000 	mfc1	v1,$f0
  403620:	44040800 	mfc1	a0,$f1
  403624:	8c450000 	lw	a1,0(v0)
  403628:	14a305d3 	bne	a1,v1,404d78 <fail>
  40362c:	00000000 	nop
  403630:	8c450004 	lw	a1,4(v0)
  403634:	14a405d0 	bne	a1,a0,404d78 <fail>
  403638:	00000000 	nop
  40363c:	24020004 	li	v0,4
  403640:	3c040042 	lui	a0,0x42
  403644:	2484e354 	addiu	a0,a0,-7340
  403648:	0000000c 	syscall
  40364c:	3c020042 	lui	v0,0x42
  403650:	2442e364 	addiu	v0,v0,-7324
  403654:	c4400000 	lwc1	$f0,0(v0)
  403658:	44030000 	mfc1	v1,$f0
  40365c:	8c440000 	lw	a0,0(v0)
  403660:	148305c5 	bne	a0,v1,404d78 <fail>
  403664:	00000000 	nop
  403668:	24020004 	li	v0,4
  40366c:	3c040042 	lui	a0,0x42
  403670:	2484e368 	addiu	a0,a0,-7320
  403674:	0000000c 	syscall
  403678:	3c020042 	lui	v0,0x42
  40367c:	2442e378 	addiu	v0,v0,-7304
  403680:	c4400000 	lwc1	$f0,0(v0)
  403684:	44030000 	mfc1	v1,$f0
  403688:	8c440000 	lw	a0,0(v0)
  40368c:	148305ba 	bne	a0,v1,404d78 <fail>
  403690:	00000000 	nop
  403694:	24020004 	li	v0,4
  403698:	3c040042 	lui	a0,0x42
  40369c:	2484e37c 	addiu	a0,a0,-7300
  4036a0:	0000000c 	syscall
  4036a4:	3c040042 	lui	a0,0x42
  4036a8:	8c84e014 	lw	a0,-8172(a0)
  4036ac:	3c010042 	lui	at,0x42
  4036b0:	c422e014 	lwc1	$f2,-8172(at)
  4036b4:	46001106 	mov.s	$f4,$f2
  4036b8:	46002186 	mov.s	$f6,$f4
  4036bc:	44063000 	mfc1	a2,$f6
  4036c0:	148605ad 	bne	a0,a2,404d78 <fail>
  4036c4:	00000000 	nop
  4036c8:	24020004 	li	v0,4
  4036cc:	3c040042 	lui	a0,0x42
  4036d0:	2484e38b 	addiu	a0,a0,-7285
  4036d4:	0000000c 	syscall
  4036d8:	3c040042 	lui	a0,0x42
  4036dc:	8c84e030 	lw	a0,-8144(a0)
  4036e0:	3c050042 	lui	a1,0x42
  4036e4:	8ca5e034 	lw	a1,-8140(a1)
  4036e8:	3c010042 	lui	at,0x42
  4036ec:	c422e030 	lwc1	$f2,-8144(at)
  4036f0:	3c010042 	lui	at,0x42
  4036f4:	c423e034 	lwc1	$f3,-8140(at)
  4036f8:	46201106 	mov.d	$f4,$f2
  4036fc:	46202186 	mov.d	$f6,$f4
  403700:	44063000 	mfc1	a2,$f6
  403704:	44073800 	mfc1	a3,$f7
  403708:	1486059b 	bne	a0,a2,404d78 <fail>
  40370c:	00000000 	nop
  403710:	14a70599 	bne	a1,a3,404d78 <fail>
  403714:	00000000 	nop
  403718:	24020004 	li	v0,4
  40371c:	3c040042 	lui	a0,0x42
  403720:	2484e39a 	addiu	a0,a0,-7270
  403724:	0000000c 	syscall
  403728:	24020002 	li	v0,2
  40372c:	3c040042 	lui	a0,0x42
  403730:	8c84e030 	lw	a0,-8144(a0)
  403734:	3c050042 	lui	a1,0x42
  403738:	8ca5e034 	lw	a1,-8140(a1)
  40373c:	3c010042 	lui	at,0x42
  403740:	c420e030 	lwc1	$f0,-8144(at)
  403744:	3c010042 	lui	at,0x42
  403748:	c421e034 	lwc1	$f1,-8140(at)
  40374c:	46200092 	movz.d	$f2,$f0,zero
  403750:	44061000 	mfc1	a2,$f2
  403754:	44071800 	mfc1	a3,$f3
  403758:	14c40587 	bne	a2,a0,404d78 <fail>
  40375c:	00000000 	nop
  403760:	14e50585 	bne	a3,a1,404d78 <fail>
  403764:	00000000 	nop
  403768:	3c010042 	lui	at,0x42
  40376c:	c420e2f8 	lwc1	$f0,-7432(at)
  403770:	3c010042 	lui	at,0x42
  403774:	c421e2fc 	lwc1	$f1,-7428(at)
  403778:	46220092 	movz.d	$f2,$f0,v0
  40377c:	44061000 	mfc1	a2,$f2
  403780:	44071800 	mfc1	a3,$f3
  403784:	14c4057c 	bne	a2,a0,404d78 <fail>
  403788:	00000000 	nop
  40378c:	14e5057a 	bne	a3,a1,404d78 <fail>
  403790:	00000000 	nop
  403794:	24020004 	li	v0,4
  403798:	3c040042 	lui	a0,0x42
  40379c:	2484e3aa 	addiu	a0,a0,-7254
  4037a0:	0000000c 	syscall
  4037a4:	24020002 	li	v0,2
  4037a8:	3c040042 	lui	a0,0x42
  4037ac:	8c84e014 	lw	a0,-8172(a0)
  4037b0:	3c010042 	lui	at,0x42
  4037b4:	c420e014 	lwc1	$f0,-8172(at)
  4037b8:	46000092 	movz.s	$f2,$f0,zero
  4037bc:	44061000 	mfc1	a2,$f2
  4037c0:	14c4056d 	bne	a2,a0,404d78 <fail>
  4037c4:	00000000 	nop
  4037c8:	3c010042 	lui	at,0x42
  4037cc:	c420e2d0 	lwc1	$f0,-7472(at)
  4037d0:	46020092 	movz.s	$f2,$f0,v0
  4037d4:	44061000 	mfc1	a2,$f2
  4037d8:	14c40567 	bne	a2,a0,404d78 <fail>
  4037dc:	00000000 	nop
  4037e0:	24020004 	li	v0,4
  4037e4:	3c040042 	lui	a0,0x42
  4037e8:	2484e3ba 	addiu	a0,a0,-7238
  4037ec:	0000000c 	syscall
  4037f0:	3c040042 	lui	a0,0x42
  4037f4:	8c84e014 	lw	a0,-8172(a0)
  4037f8:	3c010042 	lui	at,0x42
  4037fc:	c420e014 	lwc1	$f0,-8172(at)
  403800:	46000082 	mul.s	$f2,$f0,$f0
  403804:	44061000 	mfc1	a2,$f2
  403808:	1486055b 	bne	a0,a2,404d78 <fail>
  40380c:	00000000 	nop
  403810:	3c040042 	lui	a0,0x42
  403814:	8c84e2cc 	lw	a0,-7476(a0)
  403818:	3c010042 	lui	at,0x42
  40381c:	c420e2d0 	lwc1	$f0,-7472(at)
  403820:	3c010042 	lui	at,0x42
  403824:	c422e2c8 	lwc1	$f2,-7480(at)
  403828:	46020102 	mul.s	$f4,$f0,$f2
  40382c:	44062000 	mfc1	a2,$f4
  403830:	14860551 	bne	a0,a2,404d78 <fail>
  403834:	00000000 	nop
  403838:	24020004 	li	v0,4
  40383c:	3c040042 	lui	a0,0x42
  403840:	2484e3c9 	addiu	a0,a0,-7223
  403844:	0000000c 	syscall
  403848:	3c040042 	lui	a0,0x42
  40384c:	8c84e030 	lw	a0,-8144(a0)
  403850:	3c050042 	lui	a1,0x42
  403854:	8ca5e034 	lw	a1,-8140(a1)
  403858:	3c010042 	lui	at,0x42
  40385c:	c420e030 	lwc1	$f0,-8144(at)
  403860:	3c010042 	lui	at,0x42
  403864:	c421e034 	lwc1	$f1,-8140(at)
  403868:	46200082 	mul.d	$f2,$f0,$f0
  40386c:	44061000 	mfc1	a2,$f2
  403870:	44071800 	mfc1	a3,$f3
  403874:	14860540 	bne	a0,a2,404d78 <fail>
  403878:	00000000 	nop
  40387c:	14a7053e 	bne	a1,a3,404d78 <fail>
  403880:	00000000 	nop
  403884:	3c040042 	lui	a0,0x42
  403888:	8c84e2f0 	lw	a0,-7440(a0)
  40388c:	3c050042 	lui	a1,0x42
  403890:	8ca5e2f4 	lw	a1,-7436(a1)
  403894:	3c010042 	lui	at,0x42
  403898:	c420e2f8 	lwc1	$f0,-7432(at)
  40389c:	3c010042 	lui	at,0x42
  4038a0:	c421e2fc 	lwc1	$f1,-7428(at)
  4038a4:	3c010042 	lui	at,0x42
  4038a8:	c422e2e8 	lwc1	$f2,-7448(at)
  4038ac:	3c010042 	lui	at,0x42
  4038b0:	c423e2ec 	lwc1	$f3,-7444(at)
  4038b4:	46220102 	mul.d	$f4,$f0,$f2
  4038b8:	44062000 	mfc1	a2,$f4
  4038bc:	44072800 	mfc1	a3,$f5
  4038c0:	1486052d 	bne	a0,a2,404d78 <fail>
  4038c4:	00000000 	nop
  4038c8:	14a7052b 	bne	a1,a3,404d78 <fail>
  4038cc:	00000000 	nop
  4038d0:	24020004 	li	v0,4
  4038d4:	3c040042 	lui	a0,0x42
  4038d8:	2484e3d8 	addiu	a0,a0,-7208
  4038dc:	0000000c 	syscall
  4038e0:	3c040042 	lui	a0,0x42
  4038e4:	8c84dd3c 	lw	a0,-8900(a0)
  4038e8:	3c010042 	lui	at,0x42
  4038ec:	c420e014 	lwc1	$f0,-8172(at)
  4038f0:	46000087 	neg.s	$f2,$f0
  4038f4:	44061000 	mfc1	a2,$f2
  4038f8:	1486051f 	bne	a0,a2,404d78 <fail>
  4038fc:	00000000 	nop
  403900:	3c040042 	lui	a0,0x42
  403904:	8c84e2cc 	lw	a0,-7476(a0)
  403908:	3c010042 	lui	at,0x42
  40390c:	c420e3e8 	lwc1	$f0,-7192(at)
  403910:	46000087 	neg.s	$f2,$f0
  403914:	44061000 	mfc1	a2,$f2
  403918:	14860517 	bne	a0,a2,404d78 <fail>
  40391c:	00000000 	nop
  403920:	24020004 	li	v0,4
  403924:	3c040042 	lui	a0,0x42
  403928:	2484e3ec 	addiu	a0,a0,-7188
  40392c:	0000000c 	syscall
  403930:	3c040042 	lui	a0,0x42
  403934:	8c84e038 	lw	a0,-8136(a0)
  403938:	3c050042 	lui	a1,0x42
  40393c:	8ca5e03c 	lw	a1,-8132(a1)
  403940:	3c010042 	lui	at,0x42
  403944:	c420e030 	lwc1	$f0,-8144(at)
  403948:	3c010042 	lui	at,0x42
  40394c:	c421e034 	lwc1	$f1,-8140(at)
  403950:	46200087 	neg.d	$f2,$f0
  403954:	44061000 	mfc1	a2,$f2
  403958:	44071800 	mfc1	a3,$f3
  40395c:	14860506 	bne	a0,a2,404d78 <fail>
  403960:	00000000 	nop
  403964:	14a70504 	bne	a1,a3,404d78 <fail>
  403968:	00000000 	nop
  40396c:	3c040042 	lui	a0,0x42
  403970:	8c84e2f0 	lw	a0,-7440(a0)
  403974:	3c050042 	lui	a1,0x42
  403978:	8ca5e2f4 	lw	a1,-7436(a1)
  40397c:	3c010042 	lui	at,0x42
  403980:	c420e400 	lwc1	$f0,-7168(at)
  403984:	3c010042 	lui	at,0x42
  403988:	c421e404 	lwc1	$f1,-7164(at)
  40398c:	46200107 	neg.d	$f4,$f0
  403990:	44062000 	mfc1	a2,$f4
  403994:	44072800 	mfc1	a3,$f5
  403998:	148604f7 	bne	a0,a2,404d78 <fail>
  40399c:	00000000 	nop
  4039a0:	14a704f5 	bne	a1,a3,404d78 <fail>
  4039a4:	00000000 	nop
  4039a8:	24020004 	li	v0,4
  4039ac:	3c040042 	lui	a0,0x42
  4039b0:	2484e408 	addiu	a0,a0,-7160
  4039b4:	0000000c 	syscall
  4039b8:	3c010042 	lui	at,0x42
  4039bc:	c422e028 	lwc1	$f2,-8152(at)
  4039c0:	3c010042 	lui	at,0x42
  4039c4:	c423e02c 	lwc1	$f3,-8148(at)
  4039c8:	4620100c 	round.w.d	$f0,$f2
  4039cc:	44060000 	mfc1	a2,$f0
  4039d0:	14c004e9 	bnez	a2,404d78 <fail>
  4039d4:	00000000 	nop
  4039d8:	3c010042 	lui	at,0x42
  4039dc:	c422e030 	lwc1	$f2,-8144(at)
  4039e0:	3c010042 	lui	at,0x42
  4039e4:	c423e034 	lwc1	$f3,-8140(at)
  4039e8:	4620100c 	round.w.d	$f0,$f2
  4039ec:	44060000 	mfc1	a2,$f0
  4039f0:	24010001 	li	at,1
  4039f4:	14c104e0 	bne	a2,at,404d78 <fail>
  4039f8:	00000000 	nop
  4039fc:	3c010042 	lui	at,0x42
  403a00:	c422e420 	lwc1	$f2,-7136(at)
  403a04:	3c010042 	lui	at,0x42
  403a08:	c423e424 	lwc1	$f3,-7132(at)
  403a0c:	4620100c 	round.w.d	$f0,$f2
  403a10:	44060000 	mfc1	a2,$f0
  403a14:	24010002 	li	at,2
  403a18:	14c104d7 	bne	a2,at,404d78 <fail>
  403a1c:	00000000 	nop
  403a20:	24020004 	li	v0,4
  403a24:	3c040042 	lui	a0,0x42
  403a28:	2484e428 	addiu	a0,a0,-7128
  403a2c:	0000000c 	syscall
  403a30:	3c010042 	lui	at,0x42
  403a34:	c422e010 	lwc1	$f2,-8176(at)
  403a38:	4600100c 	round.w.s	$f0,$f2
  403a3c:	44060000 	mfc1	a2,$f0
  403a40:	14c004cd 	bnez	a2,404d78 <fail>
  403a44:	00000000 	nop
  403a48:	3c010042 	lui	at,0x42
  403a4c:	c422e014 	lwc1	$f2,-8172(at)
  403a50:	4600100c 	round.w.s	$f0,$f2
  403a54:	44060000 	mfc1	a2,$f0
  403a58:	24010001 	li	at,1
  403a5c:	14c104c6 	bne	a2,at,404d78 <fail>
  403a60:	00000000 	nop
  403a64:	3c010042 	lui	at,0x42
  403a68:	c422e43c 	lwc1	$f2,-7108(at)
  403a6c:	4600100c 	round.w.s	$f0,$f2
  403a70:	44060000 	mfc1	a2,$f0
  403a74:	24010002 	li	at,2
  403a78:	14c104bf 	bne	a2,at,404d78 <fail>
  403a7c:	00000000 	nop
  403a80:	24020004 	li	v0,4
  403a84:	3c040042 	lui	a0,0x42
  403a88:	2484e440 	addiu	a0,a0,-7104
  403a8c:	0000000c 	syscall
  403a90:	3c010042 	lui	at,0x42
  403a94:	d422e450 	ldc1	$f2,-7088(at)
  403a98:	46201004 	sqrt.d	$f0,$f2
  403a9c:	46200102 	mul.d	$f4,$f0,$f0
  403aa0:	46241032 	c.eq.d	$f2,$f4
  403aa4:	450004b4 	bc1f	404d78 <fail>
  403aa8:	00000000 	nop
  403aac:	24020004 	li	v0,4
  403ab0:	3c040042 	lui	a0,0x42
  403ab4:	2484e458 	addiu	a0,a0,-7080
  403ab8:	0000000c 	syscall
  403abc:	3c010042 	lui	at,0x42
  403ac0:	d422e468 	ldc1	$f2,-7064(at)
  403ac4:	46001004 	sqrt.s	$f0,$f2
  403ac8:	46000102 	mul.s	$f4,$f0,$f0
  403acc:	46041032 	c.eq.s	$f2,$f4
  403ad0:	450004a9 	bc1f	404d78 <fail>
  403ad4:	00000000 	nop
  403ad8:	24020004 	li	v0,4
  403adc:	3c040042 	lui	a0,0x42
  403ae0:	2484e46c 	addiu	a0,a0,-7060
  403ae4:	0000000c 	syscall
  403ae8:	3c040042 	lui	a0,0x42
  403aec:	8c84e010 	lw	a0,-8176(a0)
  403af0:	3c010042 	lui	at,0x42
  403af4:	c420e010 	lwc1	$f0,-8176(at)
  403af8:	46000081 	sub.s	$f2,$f0,$f0
  403afc:	44061000 	mfc1	a2,$f2
  403b00:	1486049d 	bne	a0,a2,404d78 <fail>
  403b04:	00000000 	nop
  403b08:	3c040042 	lui	a0,0x42
  403b0c:	8c84dd3c 	lw	a0,-8900(a0)
  403b10:	3c050042 	lui	a1,0x42
  403b14:	8ca5e014 	lw	a1,-8172(a1)
  403b18:	3c010042 	lui	at,0x42
  403b1c:	c420e010 	lwc1	$f0,-8176(at)
  403b20:	3c010042 	lui	at,0x42
  403b24:	c422e014 	lwc1	$f2,-8172(at)
  403b28:	46020101 	sub.s	$f4,$f0,$f2
  403b2c:	44062000 	mfc1	a2,$f4
  403b30:	14860491 	bne	a0,a2,404d78 <fail>
  403b34:	00000000 	nop
  403b38:	46001101 	sub.s	$f4,$f2,$f0
  403b3c:	44062000 	mfc1	a2,$f4
  403b40:	14a6048d 	bne	a1,a2,404d78 <fail>
  403b44:	00000000 	nop
  403b48:	3c040042 	lui	a0,0x42
  403b4c:	8c84e2d0 	lw	a0,-7472(a0)
  403b50:	3c010042 	lui	at,0x42
  403b54:	c420e2d0 	lwc1	$f0,-7472(at)
  403b58:	3c010042 	lui	at,0x42
  403b5c:	c422e2cc 	lwc1	$f2,-7476(at)
  403b60:	46001101 	sub.s	$f4,$f2,$f0
  403b64:	44062000 	mfc1	a2,$f4
  403b68:	14860483 	bne	a0,a2,404d78 <fail>
  403b6c:	00000000 	nop
  403b70:	24020004 	li	v0,4
  403b74:	3c040042 	lui	a0,0x42
  403b78:	2484e47b 	addiu	a0,a0,-7045
  403b7c:	0000000c 	syscall
  403b80:	3c040042 	lui	a0,0x42
  403b84:	8c84e028 	lw	a0,-8152(a0)
  403b88:	3c050042 	lui	a1,0x42
  403b8c:	8ca5e02c 	lw	a1,-8148(a1)
  403b90:	3c010042 	lui	at,0x42
  403b94:	c420e028 	lwc1	$f0,-8152(at)
  403b98:	3c010042 	lui	at,0x42
  403b9c:	c421e02c 	lwc1	$f1,-8148(at)
  403ba0:	46200081 	sub.d	$f2,$f0,$f0
  403ba4:	44061000 	mfc1	a2,$f2
  403ba8:	44071800 	mfc1	a3,$f3
  403bac:	14860472 	bne	a0,a2,404d78 <fail>
  403bb0:	00000000 	nop
  403bb4:	14a70470 	bne	a1,a3,404d78 <fail>
  403bb8:	00000000 	nop
  403bbc:	3c040042 	lui	a0,0x42
  403bc0:	8c84e038 	lw	a0,-8136(a0)
  403bc4:	3c050042 	lui	a1,0x42
  403bc8:	8ca5e03c 	lw	a1,-8132(a1)
  403bcc:	3c010042 	lui	at,0x42
  403bd0:	c420e028 	lwc1	$f0,-8152(at)
  403bd4:	3c010042 	lui	at,0x42
  403bd8:	c421e02c 	lwc1	$f1,-8148(at)
  403bdc:	3c010042 	lui	at,0x42
  403be0:	c422e030 	lwc1	$f2,-8144(at)
  403be4:	3c010042 	lui	at,0x42
  403be8:	c423e034 	lwc1	$f3,-8140(at)
  403bec:	46220101 	sub.d	$f4,$f0,$f2
  403bf0:	44062000 	mfc1	a2,$f4
  403bf4:	44072800 	mfc1	a3,$f5
  403bf8:	1486045f 	bne	a0,a2,404d78 <fail>
  403bfc:	00000000 	nop
  403c00:	14a7045d 	bne	a1,a3,404d78 <fail>
  403c04:	00000000 	nop
  403c08:	3c040042 	lui	a0,0x42
  403c0c:	8c84e030 	lw	a0,-8144(a0)
  403c10:	3c050042 	lui	a1,0x42
  403c14:	8ca5e034 	lw	a1,-8140(a1)
  403c18:	46201101 	sub.d	$f4,$f2,$f0
  403c1c:	44062000 	mfc1	a2,$f4
  403c20:	44072800 	mfc1	a3,$f5
  403c24:	14860454 	bne	a0,a2,404d78 <fail>
  403c28:	00000000 	nop
  403c2c:	14a70452 	bne	a1,a3,404d78 <fail>
  403c30:	00000000 	nop
  403c34:	3c040042 	lui	a0,0x42
  403c38:	8c84e2f8 	lw	a0,-7432(a0)
  403c3c:	3c050042 	lui	a1,0x42
  403c40:	8ca5e2fc 	lw	a1,-7428(a1)
  403c44:	3c010042 	lui	at,0x42
  403c48:	c420e2f8 	lwc1	$f0,-7432(at)
  403c4c:	3c010042 	lui	at,0x42
  403c50:	c421e2fc 	lwc1	$f1,-7428(at)
  403c54:	3c010042 	lui	at,0x42
  403c58:	c422e2f0 	lwc1	$f2,-7440(at)
  403c5c:	3c010042 	lui	at,0x42
  403c60:	c423e2f4 	lwc1	$f3,-7436(at)
  403c64:	46201101 	sub.d	$f4,$f2,$f0
  403c68:	44062000 	mfc1	a2,$f4
  403c6c:	44072800 	mfc1	a3,$f5
  403c70:	14860441 	bne	a0,a2,404d78 <fail>
  403c74:	00000000 	nop
  403c78:	14a7043f 	bne	a1,a3,404d78 <fail>
  403c7c:	00000000 	nop
  403c80:	24020004 	li	v0,4
  403c84:	3c040042 	lui	a0,0x42
  403c88:	2484e48a 	addiu	a0,a0,-7030
  403c8c:	0000000c 	syscall
  403c90:	3c010042 	lui	at,0x42
  403c94:	c422e028 	lwc1	$f2,-8152(at)
  403c98:	3c010042 	lui	at,0x42
  403c9c:	c423e02c 	lwc1	$f3,-8148(at)
  403ca0:	4620100d 	trunc.w.d	$f0,$f2
  403ca4:	44060000 	mfc1	a2,$f0
  403ca8:	14c00433 	bnez	a2,404d78 <fail>
  403cac:	00000000 	nop
  403cb0:	3c010042 	lui	at,0x42
  403cb4:	c422e030 	lwc1	$f2,-8144(at)
  403cb8:	3c010042 	lui	at,0x42
  403cbc:	c423e034 	lwc1	$f3,-8140(at)
  403cc0:	4620100d 	trunc.w.d	$f0,$f2
  403cc4:	44060000 	mfc1	a2,$f0
  403cc8:	24010001 	li	at,1
  403ccc:	14c1042a 	bne	a2,at,404d78 <fail>
  403cd0:	00000000 	nop
  403cd4:	3c010042 	lui	at,0x42
  403cd8:	c422e420 	lwc1	$f2,-7136(at)
  403cdc:	3c010042 	lui	at,0x42
  403ce0:	c423e424 	lwc1	$f3,-7132(at)
  403ce4:	4620100d 	trunc.w.d	$f0,$f2
  403ce8:	44060000 	mfc1	a2,$f0
  403cec:	24010001 	li	at,1
  403cf0:	14c10421 	bne	a2,at,404d78 <fail>
  403cf4:	00000000 	nop
  403cf8:	24020004 	li	v0,4
  403cfc:	3c040042 	lui	a0,0x42
  403d00:	2484e49d 	addiu	a0,a0,-7011
  403d04:	0000000c 	syscall
  403d08:	3c010042 	lui	at,0x42
  403d0c:	c422e010 	lwc1	$f2,-8176(at)
  403d10:	4600100d 	trunc.w.s	$f0,$f2
  403d14:	44060000 	mfc1	a2,$f0
  403d18:	14c00417 	bnez	a2,404d78 <fail>
  403d1c:	00000000 	nop
  403d20:	3c010042 	lui	at,0x42
  403d24:	c422e014 	lwc1	$f2,-8172(at)
  403d28:	4600100d 	trunc.w.s	$f0,$f2
  403d2c:	44060000 	mfc1	a2,$f0
  403d30:	24010001 	li	at,1
  403d34:	14c10410 	bne	a2,at,404d78 <fail>
  403d38:	00000000 	nop
  403d3c:	3c010042 	lui	at,0x42
  403d40:	c422e43c 	lwc1	$f2,-7108(at)
  403d44:	4600100d 	trunc.w.s	$f0,$f2
  403d48:	44060000 	mfc1	a2,$f0
  403d4c:	24010001 	li	at,1
  403d50:	14c10409 	bne	a2,at,404d78 <fail>
  403d54:	00000000 	nop
  403d58:	24020004 	li	v0,4
  403d5c:	3c040042 	lui	a0,0x42
  403d60:	2484e4b0 	addiu	a0,a0,-6992
  403d64:	0000000c 	syscall
  403d68:	24020001 	li	v0,1
  403d6c:	04410002 	bgez	v0,403d78 <l471+0xd74>
  403d70:	00401821 	move	v1,v0
  403d74:	00021822 	neg	v1,v0
  403d78:	24010001 	li	at,1
  403d7c:	146103fe 	bne	v1,at,404d78 <fail>
  403d80:	00000000 	nop
  403d84:	2402ffff 	li	v0,-1
  403d88:	04410002 	bgez	v0,403d94 <l471+0xd90>
  403d8c:	00000000 	nop
  403d90:	00021022 	neg	v0,v0
  403d94:	24010001 	li	at,1
  403d98:	144103f7 	bne	v0,at,404d78 <fail>
  403d9c:	00000000 	nop
  403da0:	24020000 	li	v0,0
  403da4:	04410002 	bgez	v0,403db0 <l471+0xdac>
  403da8:	00000000 	nop
  403dac:	00021022 	neg	v0,v0
  403db0:	144003f1 	bnez	v0,404d78 <fail>
  403db4:	00000000 	nop
  403db8:	24020004 	li	v0,4
  403dbc:	3c040042 	lui	a0,0x42
  403dc0:	2484e4bd 	addiu	a0,a0,-6979
  403dc4:	0000000c 	syscall
  403dc8:	10000003 	b	403dd8 <l101>
  403dcc:	00000000 	nop
  403dd0:	100003e9 	b	404d78 <fail>
  403dd4:	00000000 	nop

00403dd8 <l101>:
  403dd8:	24020004 	li	v0,4
  403ddc:	3c040042 	lui	a0,0x42
  403de0:	2484e4c8 	addiu	a0,a0,-6968
  403de4:	0000000c 	syscall
  403de8:	04110003 	bal	403df8 <l102>
  403dec:	00000000 	nop

00403df0 <l103>:
  403df0:	08100f84 	j	403e10 <l104>
  403df4:	00000000 	nop

00403df8 <l102>:
  403df8:	3c040040 	lui	a0,0x40
  403dfc:	24843df0 	addiu	a0,a0,15856
  403e00:	17e403dd 	bne	ra,a0,404d78 <fail>
  403e04:	00000000 	nop
  403e08:	03e00008 	jr	ra
  403e0c:	00000000 	nop

00403e10 <l104>:
  403e10:	24020004 	li	v0,4
  403e14:	3c040042 	lui	a0,0x42
  403e18:	2484e4d5 	addiu	a0,a0,-6955
  403e1c:	0000000c 	syscall
  403e20:	10000003 	b	403e30 <l105>
  403e24:	00000000 	nop
  403e28:	0810135e 	j	404d78 <fail>
  403e2c:	00000000 	nop

00403e30 <l105>:
  403e30:	24020001 	li	v0,1
  403e34:	104003d0 	beqz	v0,404d78 <fail>
  403e38:	00000000 	nop
  403e3c:	24020004 	li	v0,4
  403e40:	3c040042 	lui	a0,0x42
  403e44:	2484e4e3 	addiu	a0,a0,-6941
  403e48:	0000000c 	syscall
  403e4c:	04010003 	b	403e5c <l106>
  403e50:	00000000 	nop
  403e54:	0810135e 	j	404d78 <fail>
  403e58:	00000000 	nop

00403e5c <l106>:
  403e5c:	24020001 	li	v0,1
  403e60:	184003c5 	blez	v0,404d78 <fail>
  403e64:	00000000 	nop
  403e68:	04410003 	bgez	v0,403e78 <l107>
  403e6c:	00000000 	nop
  403e70:	0810135e 	j	404d78 <fail>
  403e74:	00000000 	nop

00403e78 <l107>:
  403e78:	2403ffff 	li	v1,-1
  403e7c:	0062082a 	slt	at,v1,v0
  403e80:	102003bd 	beqz	at,404d78 <fail>
  403e84:	00000000 	nop
  403e88:	0043082a 	slt	at,v0,v1
  403e8c:	10200003 	beqz	at,403e9c <l108>
  403e90:	00000000 	nop
  403e94:	0810135e 	j	404d78 <fail>
  403e98:	00000000 	nop

00403e9c <l108>:
  403e9c:	04010003 	b	403eac <l109>
  403ea0:	00000000 	nop
  403ea4:	0810135e 	j	404d78 <fail>
  403ea8:	00000000 	nop

00403eac <l109>:
  403eac:	24020001 	li	v0,1
  403eb0:	1c0003b1 	bgtz	zero,404d78 <fail>
  403eb4:	00000000 	nop
  403eb8:	04410003 	bgez	v0,403ec8 <l110>
  403ebc:	00000000 	nop
  403ec0:	0810135e 	j	404d78 <fail>
  403ec4:	00000000 	nop

00403ec8 <l110>:
  403ec8:	2403ffff 	li	v1,-1
  403ecc:	1c6003aa 	bgtz	v1,404d78 <fail>
  403ed0:	00000000 	nop
  403ed4:	2841ffff 	slti	at,v0,-1
  403ed8:	10200003 	beqz	at,403ee8 <l111>
  403edc:	00000000 	nop
  403ee0:	0810135e 	j	404d78 <fail>
  403ee4:	00000000 	nop

00403ee8 <l111>:
  403ee8:	24020004 	li	v0,4
  403eec:	3c040042 	lui	a0,0x42
  403ef0:	2484e4f0 	addiu	a0,a0,-6928
  403ef4:	0000000c 	syscall
  403ef8:	10000003 	b	403f08 <l112>
  403efc:	00000000 	nop
  403f00:	0810135e 	j	404d78 <fail>
  403f04:	00000000 	nop

00403f08 <l112>:
  403f08:	24020001 	li	v0,1
  403f0c:	1002039a 	beq	zero,v0,404d78 <fail>
  403f10:	00000000 	nop
  403f14:	10000003 	b	403f24 <l113>
  403f18:	00000000 	nop
  403f1c:	0810135e 	j	404d78 <fail>
  403f20:	00000000 	nop

00403f24 <l113>:
  403f24:	2403ffff 	li	v1,-1
  403f28:	0043082b 	sltu	at,v0,v1
  403f2c:	10200392 	beqz	at,404d78 <fail>
  403f30:	00000000 	nop
  403f34:	0062082b 	sltu	at,v1,v0
  403f38:	10200003 	beqz	at,403f48 <l114>
  403f3c:	00000000 	nop
  403f40:	0810135e 	j	404d78 <fail>
  403f44:	00000000 	nop

00403f48 <l114>:
  403f48:	10000003 	b	403f58 <l115>
  403f4c:	00000000 	nop
  403f50:	0810135e 	j	404d78 <fail>
  403f54:	00000000 	nop

00403f58 <l115>:
  403f58:	24020001 	li	v0,1
  403f5c:	14000386 	bnez	zero,404d78 <fail>
  403f60:	00000000 	nop
  403f64:	10000003 	b	403f74 <l116>
  403f68:	00000000 	nop
  403f6c:	0810135e 	j	404d78 <fail>
  403f70:	00000000 	nop

00403f74 <l116>:
  403f74:	2403ffff 	li	v1,-1
  403f78:	2c41ffff 	sltiu	at,v0,-1
  403f7c:	1020037e 	beqz	at,404d78 <fail>
  403f80:	00000000 	nop
  403f84:	14600003 	bnez	v1,403f94 <l117>
  403f88:	00000000 	nop
  403f8c:	0810135e 	j	404d78 <fail>
  403f90:	00000000 	nop

00403f94 <l117>:
  403f94:	24020004 	li	v0,4
  403f98:	3c040042 	lui	a0,0x42
  403f9c:	2484e4fe 	addiu	a0,a0,-6914
  403fa0:	0000000c 	syscall
  403fa4:	1c000374 	bgtz	zero,404d78 <fail>
  403fa8:	00000000 	nop

00403fac <l120>:
  403fac:	24020001 	li	v0,1
  403fb0:	04400371 	bltz	v0,404d78 <fail>
  403fb4:	00000000 	nop
  403fb8:	1c400003 	bgtz	v0,403fc8 <l121>
  403fbc:	00000000 	nop
  403fc0:	0810135e 	j	404d78 <fail>
  403fc4:	00000000 	nop

00403fc8 <l121>:
  403fc8:	2403ffff 	li	v1,-1
  403fcc:	0043082a 	slt	at,v0,v1
  403fd0:	14200369 	bnez	at,404d78 <fail>
  403fd4:	00000000 	nop
  403fd8:	0062082a 	slt	at,v1,v0
  403fdc:	14200003 	bnez	at,403fec <l122>
  403fe0:	00000000 	nop
  403fe4:	0810135e 	j	404d78 <fail>
  403fe8:	00000000 	nop

00403fec <l122>:
  403fec:	1c000362 	bgtz	zero,404d78 <fail>
  403ff0:	00000000 	nop

00403ff4 <l123>:
  403ff4:	24020001 	li	v0,1
  403ff8:	28010002 	slti	at,zero,2
  403ffc:	1020035e 	beqz	at,404d78 <fail>
  404000:	00000000 	nop
  404004:	1c400003 	bgtz	v0,404014 <l124>
  404008:	00000000 	nop
  40400c:	0810135e 	j	404d78 <fail>
  404010:	00000000 	nop

00404014 <l124>:
  404014:	2403ffff 	li	v1,-1
  404018:	28610002 	slti	at,v1,2
  40401c:	10200356 	beqz	at,404d78 <fail>
  404020:	00000000 	nop
  404024:	04410003 	bgez	v0,404034 <l125>
  404028:	00000000 	nop
  40402c:	0810135e 	j	404d78 <fail>
  404030:	00000000 	nop

00404034 <l125>:
  404034:	24020004 	li	v0,4
  404038:	3c040042 	lui	a0,0x42
  40403c:	2484e50b 	addiu	a0,a0,-6901
  404040:	0000000c 	syscall
  404044:	1400034c 	bnez	zero,404d78 <fail>
  404048:	00000000 	nop

0040404c <l132>:
  40404c:	24020001 	li	v0,1
  404050:	00000000 	nop
  404054:	14400003 	bnez	v0,404064 <l133>
  404058:	00000000 	nop
  40405c:	0810135e 	j	404d78 <fail>
  404060:	00000000 	nop

00404064 <l133>:
  404064:	2403ffff 	li	v1,-1
  404068:	0062082b 	sltu	at,v1,v0
  40406c:	14200342 	bnez	at,404d78 <fail>
  404070:	00000000 	nop
  404074:	0043082b 	sltu	at,v0,v1
  404078:	14200003 	bnez	at,404088 <l134>
  40407c:	00000000 	nop
  404080:	0810135e 	j	404d78 <fail>
  404084:	00000000 	nop

00404088 <l134>:
  404088:	00000000 	nop

0040408c <l135>:
  40408c:	24020001 	li	v0,1
  404090:	00000000 	nop
  404094:	14400003 	bnez	v0,4040a4 <l136>
  404098:	00000000 	nop
  40409c:	0810135e 	j	404d78 <fail>
  4040a0:	00000000 	nop

004040a4 <l136>:
  4040a4:	2403ffff 	li	v1,-1
  4040a8:	00000000 	nop
  4040ac:	2c610002 	sltiu	at,v1,2
  4040b0:	10200003 	beqz	at,4040c0 <l137>
  4040b4:	00000000 	nop
  4040b8:	0810135e 	j	404d78 <fail>
  4040bc:	00000000 	nop

004040c0 <l137>:
  4040c0:	24020004 	li	v0,4
  4040c4:	3c040042 	lui	a0,0x42
  4040c8:	2484e519 	addiu	a0,a0,-6887
  4040cc:	0000000c 	syscall
  4040d0:	18000003 	blez	zero,4040e0 <l140>
  4040d4:	00000000 	nop
  4040d8:	0810135e 	j	404d78 <fail>
  4040dc:	00000000 	nop

004040e0 <l140>:
  4040e0:	24020001 	li	v0,1
  4040e4:	18400324 	blez	v0,404d78 <fail>
  4040e8:	00000000 	nop
  4040ec:	04410003 	bgez	v0,4040fc <l141>
  4040f0:	00000000 	nop
  4040f4:	0810135e 	j	404d78 <fail>
  4040f8:	00000000 	nop

004040fc <l141>:
  4040fc:	2403ffff 	li	v1,-1
  404100:	0062082a 	slt	at,v1,v0
  404104:	1020031c 	beqz	at,404d78 <fail>
  404108:	00000000 	nop
  40410c:	0043082a 	slt	at,v0,v1
  404110:	10200003 	beqz	at,404120 <l142>
  404114:	00000000 	nop
  404118:	0810135e 	j	404d78 <fail>
  40411c:	00000000 	nop

00404120 <l142>:
  404120:	18000003 	blez	zero,404130 <l143>
  404124:	00000000 	nop
  404128:	0810135e 	j	404d78 <fail>
  40412c:	00000000 	nop

00404130 <l143>:
  404130:	24020001 	li	v0,1
  404134:	18400310 	blez	v0,404d78 <fail>
  404138:	00000000 	nop
  40413c:	28010002 	slti	at,zero,2
  404140:	14200003 	bnez	at,404150 <l144>
  404144:	00000000 	nop
  404148:	0810135e 	j	404d78 <fail>
  40414c:	00000000 	nop

00404150 <l144>:
  404150:	2403ffff 	li	v1,-1
  404154:	04400308 	bltz	v0,404d78 <fail>
  404158:	00000000 	nop
  40415c:	28610002 	slti	at,v1,2
  404160:	14200003 	bnez	at,404170 <l145>
  404164:	00000000 	nop
  404168:	0810135e 	j	404d78 <fail>
  40416c:	00000000 	nop

00404170 <l145>:
  404170:	24020004 	li	v0,4
  404174:	3c040042 	lui	a0,0x42
  404178:	2484e526 	addiu	a0,a0,-6874
  40417c:	0000000c 	syscall
  404180:	10000003 	b	404190 <l152>
  404184:	00000000 	nop
  404188:	0810135e 	j	404d78 <fail>
  40418c:	00000000 	nop

00404190 <l152>:
  404190:	24020001 	li	v0,1
  404194:	104002f8 	beqz	v0,404d78 <fail>
  404198:	00000000 	nop
  40419c:	10000003 	b	4041ac <l153>
  4041a0:	00000000 	nop
  4041a4:	0810135e 	j	404d78 <fail>
  4041a8:	00000000 	nop

004041ac <l153>:
  4041ac:	2403ffff 	li	v1,-1
  4041b0:	0043082b 	sltu	at,v0,v1
  4041b4:	102002f0 	beqz	at,404d78 <fail>
  4041b8:	00000000 	nop
  4041bc:	0062082b 	sltu	at,v1,v0
  4041c0:	10200003 	beqz	at,4041d0 <l154>
  4041c4:	00000000 	nop
  4041c8:	0810135e 	j	404d78 <fail>
  4041cc:	00000000 	nop

004041d0 <l154>:
  4041d0:	10000003 	b	4041e0 <l155>
  4041d4:	00000000 	nop
  4041d8:	0810135e 	j	404d78 <fail>
  4041dc:	00000000 	nop

004041e0 <l155>:
  4041e0:	24020001 	li	v0,1
  4041e4:	104002e4 	beqz	v0,404d78 <fail>
  4041e8:	00000000 	nop
  4041ec:	10000003 	b	4041fc <l156>
  4041f0:	00000000 	nop
  4041f4:	0810135e 	j	404d78 <fail>
  4041f8:	00000000 	nop

004041fc <l156>:
  4041fc:	2403ffff 	li	v1,-1
  404200:	2c610002 	sltiu	at,v1,2
  404204:	142002dc 	bnez	at,404d78 <fail>
  404208:	00000000 	nop
  40420c:	10000003 	b	40421c <l157>
  404210:	00000000 	nop
  404214:	0810135e 	j	404d78 <fail>
  404218:	00000000 	nop

0040421c <l157>:
  40421c:	24020004 	li	v0,4
  404220:	3c040042 	lui	a0,0x42
  404224:	2484e534 	addiu	a0,a0,-6860
  404228:	0000000c 	syscall
  40422c:	040002d2 	bltz	zero,404d78 <fail>
  404230:	00000000 	nop

00404234 <l160>:
  404234:	24020001 	li	v0,1
  404238:	044002cf 	bltz	v0,404d78 <fail>
  40423c:	00000000 	nop
  404240:	1c400003 	bgtz	v0,404250 <l161>
  404244:	00000000 	nop
  404248:	0810135e 	j	404d78 <fail>
  40424c:	00000000 	nop

00404250 <l161>:
  404250:	2403ffff 	li	v1,-1
  404254:	0043082a 	slt	at,v0,v1
  404258:	142002c7 	bnez	at,404d78 <fail>
  40425c:	00000000 	nop
  404260:	0062082a 	slt	at,v1,v0
  404264:	14200003 	bnez	at,404274 <l162>
  404268:	00000000 	nop
  40426c:	0810135e 	j	404d78 <fail>
  404270:	00000000 	nop

00404274 <l162>:
  404274:	040002c0 	bltz	zero,404d78 <fail>
  404278:	00000000 	nop

0040427c <l163>:
  40427c:	24020001 	li	v0,1
  404280:	044002bd 	bltz	v0,404d78 <fail>
  404284:	00000000 	nop
  404288:	18000003 	blez	zero,404298 <l164>
  40428c:	00000000 	nop
  404290:	0810135e 	j	404d78 <fail>
  404294:	00000000 	nop

00404298 <l164>:
  404298:	2403ffff 	li	v1,-1
  40429c:	2841ffff 	slti	at,v0,-1
  4042a0:	142002b5 	bnez	at,404d78 <fail>
  4042a4:	00000000 	nop
  4042a8:	18600003 	blez	v1,4042b8 <l165>
  4042ac:	00000000 	nop
  4042b0:	0810135e 	j	404d78 <fail>
  4042b4:	00000000 	nop

004042b8 <l165>:
  4042b8:	24020004 	li	v0,4
  4042bc:	3c040042 	lui	a0,0x42
  4042c0:	2484e541 	addiu	a0,a0,-6847
  4042c4:	0000000c 	syscall
  4042c8:	00000000 	nop

004042cc <l172>:
  4042cc:	24020001 	li	v0,1
  4042d0:	00000000 	nop
  4042d4:	14020003 	bne	zero,v0,4042e4 <l173>
  4042d8:	00000000 	nop
  4042dc:	0810135e 	j	404d78 <fail>
  4042e0:	00000000 	nop

004042e4 <l173>:
  4042e4:	2403ffff 	li	v1,-1
  4042e8:	0062082b 	sltu	at,v1,v0
  4042ec:	142002a2 	bnez	at,404d78 <fail>
  4042f0:	00000000 	nop
  4042f4:	0043082b 	sltu	at,v0,v1
  4042f8:	14200003 	bnez	at,404308 <l174>
  4042fc:	00000000 	nop
  404300:	0810135e 	j	404d78 <fail>
  404304:	00000000 	nop

00404308 <l174>:
  404308:	00000000 	nop

0040430c <l175>:
  40430c:	24020001 	li	v0,1
  404310:	00000000 	nop
  404314:	10000003 	b	404324 <l176>
  404318:	00000000 	nop
  40431c:	0810135e 	j	404d78 <fail>
  404320:	00000000 	nop

00404324 <l176>:
  404324:	2403ffff 	li	v1,-1
  404328:	10600293 	beqz	v1,404d78 <fail>
  40432c:	00000000 	nop
  404330:	2c41ffff 	sltiu	at,v0,-1
  404334:	14200003 	bnez	at,404344 <l177>
  404338:	00000000 	nop
  40433c:	0810135e 	j	404d78 <fail>
  404340:	00000000 	nop

00404344 <l177>:
  404344:	24020004 	li	v0,4
  404348:	3c040042 	lui	a0,0x42
  40434c:	2484e54f 	addiu	a0,a0,-6833
  404350:	0000000c 	syscall
  404354:	14000288 	bnez	zero,404d78 <fail>
  404358:	00000000 	nop
  40435c:	24020001 	li	v0,1
  404360:	14400003 	bnez	v0,404370 <l180>
  404364:	00000000 	nop
  404368:	0810135e 	j	404d78 <fail>
  40436c:	00000000 	nop

00404370 <l180>:
  404370:	24020004 	li	v0,4
  404374:	3c040042 	lui	a0,0x42
  404378:	2484e55d 	addiu	a0,a0,-6819
  40437c:	0000000c 	syscall
  404380:	3c020fff 	lui	v0,0xfff
  404384:	3442ffff 	ori	v0,v0,0xffff
  404388:	3c010fff 	lui	at,0xfff
  40438c:	3421ffff 	ori	at,at,0xffff
  404390:	14410279 	bne	v0,at,404d78 <fail>
  404394:	00000000 	nop
  404398:	3c020fff 	lui	v0,0xfff
  40439c:	3442fffe 	ori	v0,v0,0xfffe
  4043a0:	3c010fff 	lui	at,0xfff
  4043a4:	3421fffe 	ori	at,at,0xfffe
  4043a8:	14410273 	bne	v0,at,404d78 <fail>
  4043ac:	00000000 	nop
  4043b0:	24020000 	li	v0,0
  4043b4:	14400270 	bnez	v0,404d78 <fail>
  4043b8:	00000000 	nop
  4043bc:	3c027fff 	lui	v0,0x7fff
  4043c0:	3442ffff 	ori	v0,v0,0xffff
  4043c4:	3c017fff 	lui	at,0x7fff
  4043c8:	3421ffff 	ori	at,at,0xffff
  4043cc:	1441026a 	bne	v0,at,404d78 <fail>
  4043d0:	00000000 	nop
  4043d4:	24027fff 	li	v0,32767
  4043d8:	24017fff 	li	at,32767
  4043dc:	14410266 	bne	v0,at,404d78 <fail>
  4043e0:	00000000 	nop
  4043e4:	34028000 	li	v0,0x8000
  4043e8:	34018000 	li	at,0x8000
  4043ec:	14410262 	bne	v0,at,404d78 <fail>
  4043f0:	00000000 	nop
  4043f4:	3402ffff 	li	v0,0xffff
  4043f8:	3401ffff 	li	at,0xffff
  4043fc:	1441025e 	bne	v0,at,404d78 <fail>
  404400:	00000000 	nop
  404404:	3c020001 	lui	v0,0x1
  404408:	3c010001 	lui	at,0x1
  40440c:	1441025a 	bne	v0,at,404d78 <fail>
  404410:	00000000 	nop
  404414:	24020004 	li	v0,4
  404418:	3c040042 	lui	a0,0x42
  40441c:	2484e569 	addiu	a0,a0,-6807
  404420:	0000000c 	syscall
  404424:	3c013ff0 	lui	at,0x3ff0
  404428:	44810800 	mtc1	at,$f1
  40442c:	44800000 	mtc1	zero,$f0
  404430:	44020000 	mfc1	v0,$f0
  404434:	44030800 	mfc1	v1,$f1
  404438:	3c040042 	lui	a0,0x42
  40443c:	8c84e030 	lw	a0,-8144(a0)
  404440:	3c050042 	lui	a1,0x42
  404444:	8ca5e034 	lw	a1,-8140(a1)
  404448:	1444024b 	bne	v0,a0,404d78 <fail>
  40444c:	00000000 	nop
  404450:	14650249 	bne	v1,a1,404d78 <fail>
  404454:	00000000 	nop
  404458:	3c01bff0 	lui	at,0xbff0
  40445c:	44810800 	mtc1	at,$f1
  404460:	44800000 	mtc1	zero,$f0
  404464:	44020000 	mfc1	v0,$f0
  404468:	44030800 	mfc1	v1,$f1
  40446c:	3c040042 	lui	a0,0x42
  404470:	8c84e038 	lw	a0,-8136(a0)
  404474:	3c050042 	lui	a1,0x42
  404478:	8ca5e03c 	lw	a1,-8132(a1)
  40447c:	1444023e 	bne	v0,a0,404d78 <fail>
  404480:	00000000 	nop
  404484:	1465023c 	bne	v1,a1,404d78 <fail>
  404488:	00000000 	nop
  40448c:	24020004 	li	v0,4
  404490:	3c040042 	lui	a0,0x42
  404494:	2484e577 	addiu	a0,a0,-6793
  404498:	0000000c 	syscall
  40449c:	3c013f80 	lui	at,0x3f80
  4044a0:	44810000 	mtc1	at,$f0
  4044a4:	44020000 	mfc1	v0,$f0
  4044a8:	3c030042 	lui	v1,0x42
  4044ac:	8c63e014 	lw	v1,-8172(v1)
  4044b0:	14430231 	bne	v0,v1,404d78 <fail>
  4044b4:	00000000 	nop
  4044b8:	3c01bf80 	lui	at,0xbf80
  4044bc:	44810000 	mtc1	at,$f0
  4044c0:	44020000 	mfc1	v0,$f0
  4044c4:	3c030042 	lui	v1,0x42
  4044c8:	8c63dd3c 	lw	v1,-8900(v1)
  4044cc:	1443022a 	bne	v0,v1,404d78 <fail>
  4044d0:	00000000 	nop
  4044d4:	24020004 	li	v0,4
  4044d8:	3c040042 	lui	a0,0x42
  4044dc:	2484e585 	addiu	a0,a0,-6779
  4044e0:	0000000c 	syscall
  4044e4:	3c020fff 	lui	v0,0xfff
  4044e8:	3442ffff 	ori	v0,v0,0xffff
  4044ec:	00401821 	move	v1,v0
  4044f0:	14430221 	bne	v0,v1,404d78 <fail>
  4044f4:	00000000 	nop
  4044f8:	24020004 	li	v0,4
  4044fc:	3c040042 	lui	a0,0x42
  404500:	2484e593 	addiu	a0,a0,-6765
  404504:	0000000c 	syscall
  404508:	2402ff9b 	li	v0,-101
  40450c:	00021822 	neg	v1,v0
  404510:	24010065 	li	at,101
  404514:	14610218 	bne	v1,at,404d78 <fail>
  404518:	00000000 	nop
  40451c:	24020065 	li	v0,101
  404520:	00021022 	neg	v0,v0
  404524:	2401ff9b 	li	at,-101
  404528:	14410213 	bne	v0,at,404d78 <fail>
  40452c:	00000000 	nop
  404530:	00001022 	neg	v0,zero
  404534:	14400210 	bnez	v0,404d78 <fail>
  404538:	00000000 	nop
  40453c:	24020004 	li	v0,4
  404540:	3c040042 	lui	a0,0x42
  404544:	2484e5a0 	addiu	a0,a0,-6752
  404548:	0000000c 	syscall
  40454c:	2402ff9b 	li	v0,-101
  404550:	00021823 	negu	v1,v0
  404554:	24010065 	li	at,101
  404558:	14610207 	bne	v1,at,404d78 <fail>
  40455c:	00000000 	nop
  404560:	24020065 	li	v0,101
  404564:	00021023 	negu	v0,v0
  404568:	2401ff9b 	li	at,-101
  40456c:	14410202 	bne	v0,at,404d78 <fail>
  404570:	00000000 	nop
  404574:	00001023 	negu	v0,zero
  404578:	144001ff 	bnez	v0,404d78 <fail>
  40457c:	00000000 	nop
  404580:	24020004 	li	v0,4
  404584:	3c040042 	lui	a0,0x42
  404588:	2484e5ae 	addiu	a0,a0,-6738
  40458c:	0000000c 	syscall
  404590:	00000000 	nop
  404594:	24020004 	li	v0,4
  404598:	3c040042 	lui	a0,0x42
  40459c:	2484e5bb 	addiu	a0,a0,-6725
  4045a0:	0000000c 	syscall
  4045a4:	00001027 	nor	v0,zero,zero
  4045a8:	2401ffff 	li	at,-1
  4045ac:	144101f2 	bne	v0,at,404d78 <fail>
  4045b0:	00000000 	nop
  4045b4:	24020000 	li	v0,0
  4045b8:	00401827 	nor	v1,v0,zero
  4045bc:	2401ffff 	li	at,-1
  4045c0:	146101ed 	bne	v1,at,404d78 <fail>
  4045c4:	00000000 	nop
  4045c8:	2402ffff 	li	v0,-1
  4045cc:	00401827 	nor	v1,v0,zero
  4045d0:	146001e9 	bnez	v1,404d78 <fail>
  4045d4:	00000000 	nop
  4045d8:	24020004 	li	v0,4
  4045dc:	3c040042 	lui	a0,0x42
  4045e0:	2484e5c8 	addiu	a0,a0,-6712
  4045e4:	0000000c 	syscall
  4045e8:	24020005 	li	v0,5
  4045ec:	24030002 	li	v1,2
  4045f0:	2404fffe 	li	a0,-2
  4045f4:	14600002 	bnez	v1,404600 <l180+0x290>
  4045f8:	0043001a 	div	zero,v0,v1
  4045fc:	0007000d 	break	0x7
  404600:	2401ffff 	li	at,-1
  404604:	14610004 	bne	v1,at,404618 <l180+0x2a8>
  404608:	3c018000 	lui	at,0x8000
  40460c:	14410002 	bne	v0,at,404618 <l180+0x2a8>
  404610:	00000000 	nop
  404614:	0006000d 	break	0x6
  404618:	00002810 	mfhi	a1
  40461c:	24010001 	li	at,1
  404620:	14a101d5 	bne	a1,at,404d78 <fail>
  404624:	00000000 	nop
  404628:	14800002 	bnez	a0,404634 <l180+0x2c4>
  40462c:	0044001a 	div	zero,v0,a0
  404630:	0007000d 	break	0x7
  404634:	2401ffff 	li	at,-1
  404638:	14810004 	bne	a0,at,40464c <l180+0x2dc>
  40463c:	3c018000 	lui	at,0x8000
  404640:	14410002 	bne	v0,at,40464c <l180+0x2dc>
  404644:	00000000 	nop
  404648:	0006000d 	break	0x6
  40464c:	00002810 	mfhi	a1
  404650:	24010001 	li	at,1
  404654:	14a101c8 	bne	a1,at,404d78 <fail>
  404658:	00000000 	nop
  40465c:	24020004 	li	v0,4
  404660:	3c040042 	lui	a0,0x42
  404664:	2484e5d5 	addiu	a0,a0,-6699
  404668:	0000000c 	syscall
  40466c:	24020005 	li	v0,5
  404670:	24030002 	li	v1,2
  404674:	2404fffe 	li	a0,-2
  404678:	14600002 	bnez	v1,404684 <l180+0x314>
  40467c:	0043001b 	divu	zero,v0,v1
  404680:	0007000d 	break	0x7
  404684:	00002810 	mfhi	a1
  404688:	24010001 	li	at,1
  40468c:	14a101ba 	bne	a1,at,404d78 <fail>
  404690:	00000000 	nop
  404694:	14800002 	bnez	a0,4046a0 <l180+0x330>
  404698:	0044001b 	divu	zero,v0,a0
  40469c:	0007000d 	break	0x7
  4046a0:	00002810 	mfhi	a1
  4046a4:	24010005 	li	at,5
  4046a8:	14a101b3 	bne	a1,at,404d78 <fail>
  4046ac:	00000000 	nop
  4046b0:	24020004 	li	v0,4
  4046b4:	3c040042 	lui	a0,0x42
  4046b8:	2484e5e3 	addiu	a0,a0,-6685
  4046bc:	0000000c 	syscall
  4046c0:	24020005 	li	v0,5
  4046c4:	24030005 	li	v1,5
  4046c8:	00030823 	negu	at,v1
  4046cc:	00220806 	srlv	at,v0,at
  4046d0:	00622004 	sllv	a0,v0,v1
  4046d4:	00812025 	or	a0,a0,at
  4046d8:	240100a0 	li	at,160
  4046dc:	148101a6 	bne	a0,at,404d78 <fail>
  4046e0:	00000000 	nop
  4046e4:	24020005 	li	v0,5
  4046e8:	2403fffb 	li	v1,-5
  4046ec:	00030823 	negu	at,v1
  4046f0:	00220806 	srlv	at,v0,at
  4046f4:	00622004 	sllv	a0,v0,v1
  4046f8:	00812025 	or	a0,a0,at
  4046fc:	3c012800 	lui	at,0x2800
  404700:	1481019d 	bne	a0,at,404d78 <fail>
  404704:	00000000 	nop
  404708:	24020005 	li	v0,5
  40470c:	00020940 	sll	at,v0,0x5
  404710:	000226c2 	srl	a0,v0,0x1b
  404714:	00812025 	or	a0,a0,at
  404718:	240100a0 	li	at,160
  40471c:	14810196 	bne	a0,at,404d78 <fail>
  404720:	00000000 	nop
  404724:	24020004 	li	v0,4
  404728:	3c040042 	lui	a0,0x42
  40472c:	2484e5f0 	addiu	a0,a0,-6672
  404730:	0000000c 	syscall
  404734:	24020005 	li	v0,5
  404738:	24030005 	li	v1,5
  40473c:	00030823 	negu	at,v1
  404740:	00220804 	sllv	at,v0,at
  404744:	00622006 	srlv	a0,v0,v1
  404748:	00812025 	or	a0,a0,at
  40474c:	3c012800 	lui	at,0x2800
  404750:	14810189 	bne	a0,at,404d78 <fail>
  404754:	00000000 	nop
  404758:	24020005 	li	v0,5
  40475c:	2403fffb 	li	v1,-5
  404760:	00030823 	negu	at,v1
  404764:	00220804 	sllv	at,v0,at
  404768:	00622006 	srlv	a0,v0,v1
  40476c:	00812025 	or	a0,a0,at
  404770:	240100a0 	li	at,160
  404774:	14810180 	bne	a0,at,404d78 <fail>
  404778:	00000000 	nop
  40477c:	24020005 	li	v0,5
  404780:	00020942 	srl	at,v0,0x5
  404784:	000226c0 	sll	a0,v0,0x1b
  404788:	00812025 	or	a0,a0,at
  40478c:	3c012800 	lui	at,0x2800
  404790:	14810179 	bne	a0,at,404d78 <fail>
  404794:	00000000 	nop
  404798:	24020004 	li	v0,4
  40479c:	3c040042 	lui	a0,0x42
  4047a0:	2484e5fd 	addiu	a0,a0,-6659
  4047a4:	0000000c 	syscall
  4047a8:	2402ffff 	li	v0,-1
  4047ac:	24030001 	li	v1,1
  4047b0:	2c040001 	sltiu	a0,zero,1
  4047b4:	10800170 	beqz	a0,404d78 <fail>
  4047b8:	00000000 	nop
  4047bc:	00432026 	xor	a0,v0,v1
  4047c0:	2c840001 	sltiu	a0,a0,1
  4047c4:	1480016c 	bnez	a0,404d78 <fail>
  4047c8:	00000000 	nop
  4047cc:	2c040001 	sltiu	a0,zero,1
  4047d0:	10800169 	beqz	a0,404d78 <fail>
  4047d4:	00000000 	nop
  4047d8:	38640002 	xori	a0,v1,0x2
  4047dc:	2c840001 	sltiu	a0,a0,1
  4047e0:	14800165 	bnez	a0,404d78 <fail>
  4047e4:	00000000 	nop
  4047e8:	24020004 	li	v0,4
  4047ec:	3c040042 	lui	a0,0x42
  4047f0:	2484e60a 	addiu	a0,a0,-6646
  4047f4:	0000000c 	syscall
  4047f8:	0000202a 	slt	a0,zero,zero
  4047fc:	38840001 	xori	a0,a0,0x1
  404800:	1080015d 	beqz	a0,404d78 <fail>
  404804:	00000000 	nop
  404808:	24020001 	li	v0,1
  40480c:	0002202a 	slt	a0,zero,v0
  404810:	38840001 	xori	a0,a0,0x1
  404814:	14800158 	bnez	a0,404d78 <fail>
  404818:	00000000 	nop
  40481c:	0040202a 	slt	a0,v0,zero
  404820:	38840001 	xori	a0,a0,0x1
  404824:	10800154 	beqz	a0,404d78 <fail>
  404828:	00000000 	nop
  40482c:	2402ffff 	li	v0,-1
  404830:	0002202a 	slt	a0,zero,v0
  404834:	38840001 	xori	a0,a0,0x1
  404838:	1080014f 	beqz	a0,404d78 <fail>
  40483c:	00000000 	nop
  404840:	0040202a 	slt	a0,v0,zero
  404844:	38840001 	xori	a0,a0,0x1
  404848:	1480014b 	bnez	a0,404d78 <fail>
  40484c:	00000000 	nop
  404850:	24020001 	li	v0,1
  404854:	0002102a 	slt	v0,zero,v0
  404858:	38420001 	xori	v0,v0,0x1
  40485c:	14400146 	bnez	v0,404d78 <fail>
  404860:	00000000 	nop
  404864:	24020001 	li	v0,1
  404868:	0040102a 	slt	v0,v0,zero
  40486c:	38420001 	xori	v0,v0,0x1
  404870:	10400141 	beqz	v0,404d78 <fail>
  404874:	00000000 	nop
  404878:	2402ffff 	li	v0,-1
  40487c:	0002102a 	slt	v0,zero,v0
  404880:	38420001 	xori	v0,v0,0x1
  404884:	1040013c 	beqz	v0,404d78 <fail>
  404888:	00000000 	nop
  40488c:	2402ffff 	li	v0,-1
  404890:	0040102a 	slt	v0,v0,zero
  404894:	38420001 	xori	v0,v0,0x1
  404898:	14400137 	bnez	v0,404d78 <fail>
  40489c:	00000000 	nop
  4048a0:	28040000 	slti	a0,zero,0
  4048a4:	38840001 	xori	a0,a0,0x1
  4048a8:	10800133 	beqz	a0,404d78 <fail>
  4048ac:	00000000 	nop
  4048b0:	24020001 	li	v0,1
  4048b4:	28040001 	slti	a0,zero,1
  4048b8:	38840001 	xori	a0,a0,0x1
  4048bc:	1480012e 	bnez	a0,404d78 <fail>
  4048c0:	00000000 	nop
  4048c4:	28440000 	slti	a0,v0,0
  4048c8:	38840001 	xori	a0,a0,0x1
  4048cc:	1080012a 	beqz	a0,404d78 <fail>
  4048d0:	00000000 	nop
  4048d4:	2402ffff 	li	v0,-1
  4048d8:	2804ffff 	slti	a0,zero,-1
  4048dc:	38840001 	xori	a0,a0,0x1
  4048e0:	10800125 	beqz	a0,404d78 <fail>
  4048e4:	00000000 	nop
  4048e8:	28440000 	slti	a0,v0,0
  4048ec:	38840001 	xori	a0,a0,0x1
  4048f0:	14800121 	bnez	a0,404d78 <fail>
  4048f4:	00000000 	nop
  4048f8:	24020004 	li	v0,4
  4048fc:	3c040042 	lui	a0,0x42
  404900:	2484e617 	addiu	a0,a0,-6633
  404904:	0000000c 	syscall
  404908:	0000202b 	sltu	a0,zero,zero
  40490c:	38840001 	xori	a0,a0,0x1
  404910:	10800119 	beqz	a0,404d78 <fail>
  404914:	00000000 	nop
  404918:	24020001 	li	v0,1
  40491c:	0002202b 	sltu	a0,zero,v0
  404920:	38840001 	xori	a0,a0,0x1
  404924:	14800114 	bnez	a0,404d78 <fail>
  404928:	00000000 	nop
  40492c:	0040202b 	sltu	a0,v0,zero
  404930:	38840001 	xori	a0,a0,0x1
  404934:	10800110 	beqz	a0,404d78 <fail>
  404938:	00000000 	nop
  40493c:	2402ffff 	li	v0,-1
  404940:	0002202b 	sltu	a0,zero,v0
  404944:	38840001 	xori	a0,a0,0x1
  404948:	1480010b 	bnez	a0,404d78 <fail>
  40494c:	00000000 	nop
  404950:	0040202b 	sltu	a0,v0,zero
  404954:	38840001 	xori	a0,a0,0x1
  404958:	10800107 	beqz	a0,404d78 <fail>
  40495c:	00000000 	nop
  404960:	2c040000 	sltiu	a0,zero,0
  404964:	38840001 	xori	a0,a0,0x1
  404968:	10800103 	beqz	a0,404d78 <fail>
  40496c:	00000000 	nop
  404970:	24020001 	li	v0,1
  404974:	2c040001 	sltiu	a0,zero,1
  404978:	38840001 	xori	a0,a0,0x1
  40497c:	148000fe 	bnez	a0,404d78 <fail>
  404980:	00000000 	nop
  404984:	2c440000 	sltiu	a0,v0,0
  404988:	38840001 	xori	a0,a0,0x1
  40498c:	108000fa 	beqz	a0,404d78 <fail>
  404990:	00000000 	nop
  404994:	2402ffff 	li	v0,-1
  404998:	2c04ffff 	sltiu	a0,zero,-1
  40499c:	38840001 	xori	a0,a0,0x1
  4049a0:	148000f5 	bnez	a0,404d78 <fail>
  4049a4:	00000000 	nop
  4049a8:	2c440000 	sltiu	a0,v0,0
  4049ac:	38840001 	xori	a0,a0,0x1
  4049b0:	108000f1 	beqz	a0,404d78 <fail>
  4049b4:	00000000 	nop
  4049b8:	24020004 	li	v0,4
  4049bc:	3c040042 	lui	a0,0x42
  4049c0:	2484e625 	addiu	a0,a0,-6619
  4049c4:	0000000c 	syscall
  4049c8:	0000202a 	slt	a0,zero,zero
  4049cc:	148000ea 	bnez	a0,404d78 <fail>
  4049d0:	00000000 	nop
  4049d4:	24020001 	li	v0,1
  4049d8:	0040202a 	slt	a0,v0,zero
  4049dc:	148000e6 	bnez	a0,404d78 <fail>
  4049e0:	00000000 	nop
  4049e4:	0002202a 	slt	a0,zero,v0
  4049e8:	108000e3 	beqz	a0,404d78 <fail>
  4049ec:	00000000 	nop
  4049f0:	2402ffff 	li	v0,-1
  4049f4:	0040202a 	slt	a0,v0,zero
  4049f8:	108000df 	beqz	a0,404d78 <fail>
  4049fc:	00000000 	nop
  404a00:	0002202a 	slt	a0,zero,v0
  404a04:	148000dc 	bnez	a0,404d78 <fail>
  404a08:	00000000 	nop
  404a0c:	24010000 	li	at,0
  404a10:	0020202a 	slt	a0,at,zero
  404a14:	148000d8 	bnez	a0,404d78 <fail>
  404a18:	00000000 	nop
  404a1c:	24010001 	li	at,1
  404a20:	0020202a 	slt	a0,at,zero
  404a24:	148000d4 	bnez	a0,404d78 <fail>
  404a28:	00000000 	nop
  404a2c:	24020001 	li	v0,1
  404a30:	24010000 	li	at,0
  404a34:	0022202a 	slt	a0,at,v0
  404a38:	108000cf 	beqz	a0,404d78 <fail>
  404a3c:	00000000 	nop
  404a40:	2401ffff 	li	at,-1
  404a44:	0020202a 	slt	a0,at,zero
  404a48:	108000cb 	beqz	a0,404d78 <fail>
  404a4c:	00000000 	nop
  404a50:	2402ffff 	li	v0,-1
  404a54:	24010000 	li	at,0
  404a58:	0022202a 	slt	a0,at,v0
  404a5c:	148000c6 	bnez	a0,404d78 <fail>
  404a60:	00000000 	nop
  404a64:	24020004 	li	v0,4
  404a68:	3c040042 	lui	a0,0x42
  404a6c:	2484e632 	addiu	a0,a0,-6606
  404a70:	0000000c 	syscall
  404a74:	0000202b 	sltu	a0,zero,zero
  404a78:	148000bf 	bnez	a0,404d78 <fail>
  404a7c:	00000000 	nop
  404a80:	24020001 	li	v0,1
  404a84:	0040202b 	sltu	a0,v0,zero
  404a88:	148000bb 	bnez	a0,404d78 <fail>
  404a8c:	00000000 	nop
  404a90:	0002202b 	sltu	a0,zero,v0
  404a94:	108000b8 	beqz	a0,404d78 <fail>
  404a98:	00000000 	nop
  404a9c:	2402ffff 	li	v0,-1
  404aa0:	0040202b 	sltu	a0,v0,zero
  404aa4:	148000b4 	bnez	a0,404d78 <fail>
  404aa8:	00000000 	nop
  404aac:	0002202b 	sltu	a0,zero,v0
  404ab0:	108000b1 	beqz	a0,404d78 <fail>
  404ab4:	00000000 	nop
  404ab8:	24010000 	li	at,0
  404abc:	0020202b 	sltu	a0,at,zero
  404ac0:	148000ad 	bnez	a0,404d78 <fail>
  404ac4:	00000000 	nop
  404ac8:	24010001 	li	at,1
  404acc:	0020202b 	sltu	a0,at,zero
  404ad0:	148000a9 	bnez	a0,404d78 <fail>
  404ad4:	00000000 	nop
  404ad8:	24020001 	li	v0,1
  404adc:	24010000 	li	at,0
  404ae0:	0022202b 	sltu	a0,at,v0
  404ae4:	108000a4 	beqz	a0,404d78 <fail>
  404ae8:	00000000 	nop
  404aec:	2401ffff 	li	at,-1
  404af0:	0020202b 	sltu	a0,at,zero
  404af4:	148000a0 	bnez	a0,404d78 <fail>
  404af8:	00000000 	nop
  404afc:	2402ffff 	li	v0,-1
  404b00:	24010000 	li	at,0
  404b04:	0022202b 	sltu	a0,at,v0
  404b08:	1080009b 	beqz	a0,404d78 <fail>
  404b0c:	00000000 	nop
  404b10:	24020004 	li	v0,4
  404b14:	3c040042 	lui	a0,0x42
  404b18:	2484e640 	addiu	a0,a0,-6592
  404b1c:	0000000c 	syscall
  404b20:	0000202a 	slt	a0,zero,zero
  404b24:	38840001 	xori	a0,a0,0x1
  404b28:	10800093 	beqz	a0,404d78 <fail>
  404b2c:	00000000 	nop
  404b30:	24020001 	li	v0,1
  404b34:	0040202a 	slt	a0,v0,zero
  404b38:	38840001 	xori	a0,a0,0x1
  404b3c:	1080008e 	beqz	a0,404d78 <fail>
  404b40:	00000000 	nop
  404b44:	0002202a 	slt	a0,zero,v0
  404b48:	38840001 	xori	a0,a0,0x1
  404b4c:	1480008a 	bnez	a0,404d78 <fail>
  404b50:	00000000 	nop
  404b54:	2402ffff 	li	v0,-1
  404b58:	0040202a 	slt	a0,v0,zero
  404b5c:	38840001 	xori	a0,a0,0x1
  404b60:	14800085 	bnez	a0,404d78 <fail>
  404b64:	00000000 	nop
  404b68:	0002202a 	slt	a0,zero,v0
  404b6c:	38840001 	xori	a0,a0,0x1
  404b70:	10800081 	beqz	a0,404d78 <fail>
  404b74:	00000000 	nop
  404b78:	24020001 	li	v0,1
  404b7c:	0040102a 	slt	v0,v0,zero
  404b80:	38420001 	xori	v0,v0,0x1
  404b84:	1040007c 	beqz	v0,404d78 <fail>
  404b88:	00000000 	nop
  404b8c:	24020001 	li	v0,1
  404b90:	0002102a 	slt	v0,zero,v0
  404b94:	38420001 	xori	v0,v0,0x1
  404b98:	14400077 	bnez	v0,404d78 <fail>
  404b9c:	00000000 	nop
  404ba0:	2402ffff 	li	v0,-1
  404ba4:	0040102a 	slt	v0,v0,zero
  404ba8:	38420001 	xori	v0,v0,0x1
  404bac:	14400072 	bnez	v0,404d78 <fail>
  404bb0:	00000000 	nop
  404bb4:	2402ffff 	li	v0,-1
  404bb8:	0002102a 	slt	v0,zero,v0
  404bbc:	38420001 	xori	v0,v0,0x1
  404bc0:	1040006d 	beqz	v0,404d78 <fail>
  404bc4:	00000000 	nop
  404bc8:	24010000 	li	at,0
  404bcc:	0020202a 	slt	a0,at,zero
  404bd0:	38840001 	xori	a0,a0,0x1
  404bd4:	10800068 	beqz	a0,404d78 <fail>
  404bd8:	00000000 	nop
  404bdc:	24020001 	li	v0,1
  404be0:	24010001 	li	at,1
  404be4:	0020202a 	slt	a0,at,zero
  404be8:	38840001 	xori	a0,a0,0x1
  404bec:	10800062 	beqz	a0,404d78 <fail>
  404bf0:	00000000 	nop
  404bf4:	24010000 	li	at,0
  404bf8:	0022202a 	slt	a0,at,v0
  404bfc:	38840001 	xori	a0,a0,0x1
  404c00:	1480005d 	bnez	a0,404d78 <fail>
  404c04:	00000000 	nop
  404c08:	2402ffff 	li	v0,-1
  404c0c:	2401ffff 	li	at,-1
  404c10:	0020202a 	slt	a0,at,zero
  404c14:	38840001 	xori	a0,a0,0x1
  404c18:	14800057 	bnez	a0,404d78 <fail>
  404c1c:	00000000 	nop
  404c20:	24010000 	li	at,0
  404c24:	0022202a 	slt	a0,at,v0
  404c28:	38840001 	xori	a0,a0,0x1
  404c2c:	10800052 	beqz	a0,404d78 <fail>
  404c30:	00000000 	nop
  404c34:	24020004 	li	v0,4
  404c38:	3c040042 	lui	a0,0x42
  404c3c:	2484e64d 	addiu	a0,a0,-6579
  404c40:	0000000c 	syscall
  404c44:	0000202b 	sltu	a0,zero,zero
  404c48:	38840001 	xori	a0,a0,0x1
  404c4c:	1080004a 	beqz	a0,404d78 <fail>
  404c50:	00000000 	nop
  404c54:	24020001 	li	v0,1
  404c58:	0040202b 	sltu	a0,v0,zero
  404c5c:	38840001 	xori	a0,a0,0x1
  404c60:	10800045 	beqz	a0,404d78 <fail>
  404c64:	00000000 	nop
  404c68:	0002202b 	sltu	a0,zero,v0
  404c6c:	38840001 	xori	a0,a0,0x1
  404c70:	14800041 	bnez	a0,404d78 <fail>
  404c74:	00000000 	nop
  404c78:	2402ffff 	li	v0,-1
  404c7c:	0040202b 	sltu	a0,v0,zero
  404c80:	38840001 	xori	a0,a0,0x1
  404c84:	1080003c 	beqz	a0,404d78 <fail>
  404c88:	00000000 	nop
  404c8c:	0002202b 	sltu	a0,zero,v0
  404c90:	38840001 	xori	a0,a0,0x1
  404c94:	14800038 	bnez	a0,404d78 <fail>
  404c98:	00000000 	nop
  404c9c:	24010000 	li	at,0
  404ca0:	0020202b 	sltu	a0,at,zero
  404ca4:	38840001 	xori	a0,a0,0x1
  404ca8:	10800033 	beqz	a0,404d78 <fail>
  404cac:	00000000 	nop
  404cb0:	24020001 	li	v0,1
  404cb4:	24010001 	li	at,1
  404cb8:	0020202b 	sltu	a0,at,zero
  404cbc:	38840001 	xori	a0,a0,0x1
  404cc0:	1080002d 	beqz	a0,404d78 <fail>
  404cc4:	00000000 	nop
  404cc8:	24010000 	li	at,0
  404ccc:	0022202b 	sltu	a0,at,v0
  404cd0:	38840001 	xori	a0,a0,0x1
  404cd4:	14800028 	bnez	a0,404d78 <fail>
  404cd8:	00000000 	nop
  404cdc:	2402ffff 	li	v0,-1
  404ce0:	2401ffff 	li	at,-1
  404ce4:	0020202b 	sltu	a0,at,zero
  404ce8:	38840001 	xori	a0,a0,0x1
  404cec:	10800022 	beqz	a0,404d78 <fail>
  404cf0:	00000000 	nop
  404cf4:	24010000 	li	at,0
  404cf8:	0022202b 	sltu	a0,at,v0
  404cfc:	38840001 	xori	a0,a0,0x1
  404d00:	1480001d 	bnez	a0,404d78 <fail>
  404d04:	00000000 	nop
  404d08:	24020004 	li	v0,4
  404d0c:	3c040042 	lui	a0,0x42
  404d10:	2484e65b 	addiu	a0,a0,-6565
  404d14:	0000000c 	syscall
  404d18:	2402ffff 	li	v0,-1
  404d1c:	24030001 	li	v1,1
  404d20:	0000202b 	sltu	a0,zero,zero
  404d24:	14800014 	bnez	a0,404d78 <fail>
  404d28:	00000000 	nop
  404d2c:	00432026 	xor	a0,v0,v1
  404d30:	0004202b 	sltu	a0,zero,a0
  404d34:	10800010 	beqz	a0,404d78 <fail>
  404d38:	00000000 	nop
  404d3c:	0000202b 	sltu	a0,zero,zero
  404d40:	1480000d 	bnez	a0,404d78 <fail>
  404d44:	00000000 	nop
  404d48:	38640002 	xori	a0,v1,0x2
  404d4c:	0004202b 	sltu	a0,zero,a0
  404d50:	10800009 	beqz	a0,404d78 <fail>
  404d54:	00000000 	nop

00404d58 <OK>:
  404d58:	24020004 	li	v0,4
  404d5c:	3c040042 	lui	a0,0x42
  404d60:	2484e668 	addiu	a0,a0,-6552
  404d64:	0000000c 	syscall
  404d68:	3c1f0040 	lui	ra,0x40
  404d6c:	8fff5000 	lw	ra,20480(ra)
  404d70:	03e00008 	jr	ra
  404d74:	00000000 	nop

00404d78 <fail>:
  404d78:	24020004 	li	v0,4
  404d7c:	3c040042 	lui	a0,0x42
  404d80:	2484e67b 	addiu	a0,a0,-6533
  404d84:	0000000c 	syscall
  404d88:	2402000a 	li	v0,10
  404d8c:	0000000c 	syscall

00404d90 <far_away>:
  404d90:	1000ed5b 	b	400300 <come_back>
  404d94:	00000000 	nop
